ARM GAS  C:\Users\FFDD~1\AppData\Local\Temp\ccwoACCD.s 			page 1


   1              		.cpu cortex-m4
   2              		.eabi_attribute 27, 1
   3              		.eabi_attribute 28, 1
   4              		.eabi_attribute 20, 1
   5              		.eabi_attribute 21, 1
   6              		.eabi_attribute 23, 3
   7              		.eabi_attribute 24, 1
   8              		.eabi_attribute 25, 1
   9              		.eabi_attribute 26, 1
  10              		.eabi_attribute 30, 2
  11              		.eabi_attribute 34, 1
  12              		.eabi_attribute 18, 4
  13              		.file	"audio_processing.c"
  14              		.text
  15              	.Ltext0:
  16              		.cfi_sections	.debug_frame
  17              		.section	.text.sound_remote,"ax",%progbits
  18              		.align	1
  19              		.p2align 4,,15
  20              		.global	sound_remote
  21              		.syntax unified
  22              		.thumb
  23              		.thumb_func
  24              		.fpu fpv4-sp-d16
  25              		.type	sound_remote, %function
  26              	sound_remote:
  27              	.LFB290:
  28              		.file 1 "audio_processing.c"
  29              		.loc 1 51 0
  30              		.cfi_startproc
  31              		@ args = 0, pretend = 0, frame = 8
  32              		@ frame_needed = 0, uses_anonymous_args = 0
  33              	.LVL0:
  34 0000 30B5     		push	{r4, r5, lr}
  35              		.cfi_def_cfa_offset 12
  36              		.cfi_offset 4, -12
  37              		.cfi_offset 5, -8
  38              		.cfi_offset 14, -4
  39 0002 284D     		ldr	r5, .L22
  40              		.loc 1 52 0
  41 0004 9FED287A 		vldr.32	s14, .L22+4
  42              		.loc 1 51 0
  43 0008 2B68     		ldr	r3, [r5]
  44 000a 83B0     		sub	sp, sp, #12
  45              		.cfi_def_cfa_offset 24
  46 000c 00F58060 		add	r0, r0, #1024
  47              	.LVL1:
  48              		.loc 1 51 0
  49 0010 0193     		str	r3, [sp, #4]
  50              	.LVL2:
  51              		.loc 1 53 0
  52 0012 4FF0FF31 		mov	r1, #-1
  53              		.loc 1 51 0
  54 0016 4FF48073 		mov	r3, #256
  55              	.LBB35:
  56              		.loc 1 56 0
  57 001a 40F2C112 		movw	r2, #449
ARM GAS  C:\Users\FFDD~1\AppData\Local\Temp\ccwoACCD.s 			page 2


  58              	.LVL3:
  59              	.L4:
  60              		.loc 1 57 0
  61 001e F0EC017A 		vldmia.32	r0!, {s15}
  62 0022 F4EEC77A 		vcmpe.f32	s15, s14
  63 0026 F1EE10FA 		vmrs	APSR_nzcv, FPSCR
  64              	.LVL4:
  65              		.loc 1 59 0
  66 002a C8BF     		it	gt
  67 002c 19B2     		sxthgt	r1, r3
  68              	.LVL5:
  69 002e 03F10103 		add	r3, r3, #1
  70              	.LVL6:
  71              		.loc 1 58 0
  72 0032 C8BF     		it	gt
  73 0034 B0EE677A 		vmovgt.f32	s14, s15
  74              	.LVL7:
  75              		.loc 1 56 0
  76 0038 9342     		cmp	r3, r2
  77 003a F0D1     		bne	.L4
  78              	.LBE35:
  79              		.loc 1 63 0
  80 003c 8CB2     		uxth	r4, r1
  81 003e 6FF49F71 		mvn	r1, #318
  82 0042 6318     		adds	r3, r4, r1
  83 0044 022B     		cmp	r3, #2
  84 0046 0FD9     		bls	.L19
  85              	.LVL8:
  86              	.L5:
  87              		.loc 1 68 0
  88 0048 6FF4BF72 		mvn	r2, #382
  89 004c A318     		adds	r3, r4, r2
  90 004e 022B     		cmp	r3, #2
  91 0050 21D9     		bls	.L20
  92              	.L7:
  93              		.loc 1 73 0
  94 0052 6FF4DE73 		mvn	r3, #444
  95 0056 E118     		adds	r1, r4, r3
  96 0058 0229     		cmp	r1, #2
  97              		.loc 1 74 0
  98 005a 019A     		ldr	r2, [sp, #4]
  99 005c 2B68     		ldr	r3, [r5]
 100              		.loc 1 73 0
 101 005e 11D9     		bls	.L21
 102              		.loc 1 76 0
 103 0060 9A42     		cmp	r2, r3
 104 0062 0DD1     		bne	.L16
 105 0064 03B0     		add	sp, sp, #12
 106              		.cfi_remember_state
 107              		.cfi_def_cfa_offset 12
 108              		@ sp needed
 109 0066 30BD     		pop	{r4, r5, pc}
 110              	.LVL9:
 111              	.L19:
 112              		.cfi_restore_state
 113              		.loc 1 63 0 discriminator 1
 114 0068 FFF7FEFF 		bl	get_status
ARM GAS  C:\Users\FFDD~1\AppData\Local\Temp\ccwoACCD.s 			page 3


 115              	.LVL10:
 116 006c 0028     		cmp	r0, #0
 117 006e EBD1     		bne	.L5
 118              	.L17:
 119              	.LBB36:
 120              	.LBB37:
 121              		.loc 1 69 0
 122 0070 FFF7FEFF 		bl	set_color
 123              	.LVL11:
 124              		.loc 1 70 0
 125 0074 019A     		ldr	r2, [sp, #4]
 126 0076 2B68     		ldr	r3, [r5]
 127 0078 9A42     		cmp	r2, r3
 128 007a 08BF     		it	eq
 129 007c 0120     		moveq	r0, #1
 130 007e 05D0     		beq	.L15
 131              	.L16:
 132              	.LBE37:
 133              	.LBE36:
 134              		.loc 1 76 0
 135 0080 FFF7FEFF 		bl	__stack_chk_fail
 136              	.LVL12:
 137              	.L21:
 138              		.loc 1 74 0
 139 0084 9A42     		cmp	r2, r3
 140 0086 08BF     		it	eq
 141 0088 0020     		moveq	r0, #0
 142 008a F9D1     		bne	.L16
 143              	.L15:
 144              		.loc 1 76 0
 145 008c 03B0     		add	sp, sp, #12
 146              		.cfi_remember_state
 147              		.cfi_def_cfa_offset 12
 148              		@ sp needed
 149 008e BDE83040 		pop	{r4, r5, lr}
 150              		.cfi_restore 14
 151              		.cfi_restore 5
 152              		.cfi_restore 4
 153              		.cfi_def_cfa_offset 0
 154              		.loc 1 74 0
 155 0092 FFF7FEBF 		b	set_status
 156              	.LVL13:
 157              	.L20:
 158              		.cfi_restore_state
 159              		.loc 1 68 0 discriminator 1
 160 0096 FFF7FEFF 		bl	get_status
 161              	.LVL14:
 162 009a 0028     		cmp	r0, #0
 163 009c D9D1     		bne	.L7
 164              	.LVL15:
 165              	.LBB39:
 166              	.LBB38:
 167              		.loc 1 69 0
 168 009e 0120     		movs	r0, #1
 169 00a0 E6E7     		b	.L17
 170              	.L23:
 171 00a2 00BF     		.align	2
ARM GAS  C:\Users\FFDD~1\AppData\Local\Temp\ccwoACCD.s 			page 4


 172              	.L22:
 173 00a4 00000000 		.word	__stack_chk_guard
 174 00a8 00401C46 		.word	1176256512
 175              	.LBE38:
 176              	.LBE39:
 177              		.cfi_endproc
 178              	.LFE290:
 179              		.size	sound_remote, .-sound_remote
 180              		.section	.text.processAudioData,"ax",%progbits
 181              		.align	1
 182              		.p2align 4,,15
 183              		.global	processAudioData
 184              		.syntax unified
 185              		.thumb
 186              		.thumb_func
 187              		.fpu fpv4-sp-d16
 188              		.type	processAudioData, %function
 189              	processAudioData:
 190              	.LFB291:
 191              		.loc 1 87 0
 192              		.cfi_startproc
 193              		@ args = 0, pretend = 0, frame = 8
 194              		@ frame_needed = 0, uses_anonymous_args = 0
 195              	.LVL16:
 196 0000 2DE9F04F 		push	{r4, r5, r6, r7, r8, r9, r10, fp, lr}
 197              		.cfi_def_cfa_offset 36
 198              		.cfi_offset 4, -36
 199              		.cfi_offset 5, -32
 200              		.cfi_offset 6, -28
 201              		.cfi_offset 7, -24
 202              		.cfi_offset 8, -20
 203              		.cfi_offset 9, -16
 204              		.cfi_offset 10, -12
 205              		.cfi_offset 11, -8
 206              		.cfi_offset 14, -4
 207 0004 684E     		ldr	r6, .L41
 208 0006 694F     		ldr	r7, .L41+4
 209 0008 3368     		ldr	r3, [r6]
 210 000a 3A88     		ldrh	r2, [r7]
 211 000c 83B0     		sub	sp, sp, #12
 212              		.cfi_def_cfa_offset 48
 213              		.loc 1 87 0
 214 000e 0193     		str	r3, [sp, #4]
 215              	.LVL17:
 216              	.LBB55:
 217              		.loc 1 101 0
 218 0010 0029     		cmp	r1, #0
 219 0012 00F09380 		beq	.L25
 220 0016 DFF89C91 		ldr	r9, .L41+12
 221 001a DFF8A081 		ldr	r8, .L41+20
 222 001e DFF8A4E1 		ldr	lr, .L41+28
 223 0022 DFF89CC1 		ldr	ip, .L41+24
 224              		.loc 1 110 0
 225 0026 DFED627A 		vldr.32	s15, .L41+8
 226              		.loc 1 101 0
 227 002a 0025     		movs	r5, #0
 228 002c 04E0     		b	.L28
ARM GAS  C:\Users\FFDD~1\AppData\Local\Temp\ccwoACCD.s 			page 5


 229              	.LVL18:
 230              	.L26:
 231              		.loc 1 101 0 is_stmt 0 discriminator 2
 232 002e 0435     		adds	r5, r5, #4
 233              	.LVL19:
 234 0030 ADB2     		uxth	r5, r5
 235              	.LVL20:
 236 0032 A942     		cmp	r1, r5
 237 0034 40F2B580 		bls	.L39
 238              	.LVL21:
 239              	.L28:
 240              		.loc 1 103 0 is_stmt 1
 241 0038 30F91530 		ldrsh	r3, [r0, r5, lsl #1]
 242 003c 07EE103A 		vmov	s14, r3	@ int
 243 0040 9400     		lsls	r4, r2, #2
 244 0042 B8EEC77A 		vcvt.f32.s32	s14, s14
 245 0046 09EB040A 		add	r10, r9, r4
 246              		.loc 1 104 0
 247 004a 00EB4503 		add	r3, r0, r5, lsl #1
 248              		.loc 1 103 0
 249 004e 8AED007A 		vstr.32	s14, [r10]
 250              		.loc 1 104 0
 251 0052 B3F902A0 		ldrsh	r10, [r3, #2]
 252 0056 07EE10AA 		vmov	s14, r10	@ int
 253 005a B8EEC77A 		vcvt.f32.s32	s14, s14
 254 005e 08EB040A 		add	r10, r8, r4
 255 0062 8AED007A 		vstr.32	s14, [r10]
 256              		.loc 1 105 0
 257 0066 B3F904A0 		ldrsh	r10, [r3, #4]
 258 006a 07EE10AA 		vmov	s14, r10	@ int
 259 006e B8EEC77A 		vcvt.f32.s32	s14, s14
 260 0072 0EEB040A 		add	r10, lr, r4
 261 0076 8AED007A 		vstr.32	s14, [r10]
 262              		.loc 1 106 0
 263 007a B3F90630 		ldrsh	r3, [r3, #6]
 264 007e 07EE103A 		vmov	s14, r3	@ int
 265              		.loc 1 110 0
 266 0082 531C     		adds	r3, r2, #1
 267 0084 9BB2     		uxth	r3, r3
 268              		.loc 1 106 0
 269 0086 B8EEC77A 		vcvt.f32.s32	s14, s14
 270              		.loc 1 115 0
 271 008a 0232     		adds	r2, r2, #2
 272              		.loc 1 110 0
 273 008c 9B00     		lsls	r3, r3, #2
 274              		.loc 1 106 0
 275 008e 6444     		add	r4, r4, ip
 276              		.loc 1 115 0
 277 0090 92B2     		uxth	r2, r2
 278              		.loc 1 106 0
 279 0092 84ED007A 		vstr.32	s14, [r4]
 280              		.loc 1 110 0
 281 0096 09EB030B 		add	fp, r9, r3
 282              		.loc 1 111 0
 283 009a 08EB030A 		add	r10, r8, r3
 284              		.loc 1 112 0
 285 009e 0EEB0304 		add	r4, lr, r3
ARM GAS  C:\Users\FFDD~1\AppData\Local\Temp\ccwoACCD.s 			page 6


 286              		.loc 1 118 0
 287 00a2 B2F5006F 		cmp	r2, #2048
 288              		.loc 1 113 0
 289 00a6 6344     		add	r3, r3, ip
 290              		.loc 1 110 0
 291 00a8 CBED007A 		vstr.32	s15, [fp]
 292              		.loc 1 111 0
 293 00ac CAED007A 		vstr.32	s15, [r10]
 294              		.loc 1 112 0
 295 00b0 C4ED007A 		vstr.32	s15, [r4]
 296              		.loc 1 113 0
 297 00b4 C3ED007A 		vstr.32	s15, [r3]
 298              		.loc 1 118 0
 299 00b8 B9D3     		bcc	.L26
 300 00ba 3A80     		strh	r2, [r7]	@ movhi
 301              	.LVL22:
 302              	.L27:
 303              	.LBE55:
 304              		.loc 1 130 0
 305 00bc 3D49     		ldr	r1, .L41+12
 306              	.LVL23:
 307              		.loc 1 149 0
 308 00be 3E4C     		ldr	r4, .L41+16
 309              		.loc 1 130 0
 310 00c0 4FF48060 		mov	r0, #1024
 311              	.LVL24:
 312 00c4 FFF7FEFF 		bl	doFFT_optimized
 313              	.LVL25:
 314              		.loc 1 131 0
 315 00c8 3C49     		ldr	r1, .L41+20
 316 00ca 4FF48060 		mov	r0, #1024
 317 00ce FFF7FEFF 		bl	doFFT_optimized
 318              	.LVL26:
 319              		.loc 1 132 0
 320 00d2 3B49     		ldr	r1, .L41+24
 321 00d4 4FF48060 		mov	r0, #1024
 322 00d8 FFF7FEFF 		bl	doFFT_optimized
 323              	.LVL27:
 324              		.loc 1 133 0
 325 00dc 3949     		ldr	r1, .L41+28
 326 00de 4FF48060 		mov	r0, #1024
 327 00e2 FFF7FEFF 		bl	doFFT_optimized
 328              	.LVL28:
 329              		.loc 1 142 0
 330 00e6 4FF48062 		mov	r2, #1024
 331 00ea 3749     		ldr	r1, .L41+32
 332 00ec 3148     		ldr	r0, .L41+12
 333 00ee FFF7FEFF 		bl	arm_cmplx_mag_f32
 334              	.LVL29:
 335              		.loc 1 143 0
 336 00f2 4FF48062 		mov	r2, #1024
 337 00f6 3549     		ldr	r1, .L41+36
 338 00f8 3048     		ldr	r0, .L41+20
 339 00fa FFF7FEFF 		bl	arm_cmplx_mag_f32
 340              	.LVL30:
 341              		.loc 1 144 0
 342 00fe 4FF48062 		mov	r2, #1024
ARM GAS  C:\Users\FFDD~1\AppData\Local\Temp\ccwoACCD.s 			page 7


 343 0102 3349     		ldr	r1, .L41+40
 344 0104 2E48     		ldr	r0, .L41+24
 345 0106 FFF7FEFF 		bl	arm_cmplx_mag_f32
 346              	.LVL31:
 347              		.loc 1 145 0
 348 010a 4FF48062 		mov	r2, #1024
 349 010e 3149     		ldr	r1, .L41+44
 350 0110 2C48     		ldr	r0, .L41+28
 351 0112 FFF7FEFF 		bl	arm_cmplx_mag_f32
 352              	.LVL32:
 353              		.loc 1 149 0
 354 0116 2378     		ldrb	r3, [r4]	@ zero_extendqisi2
 355 0118 082B     		cmp	r3, #8
 356 011a 19D8     		bhi	.L30
 357 011c 0133     		adds	r3, r3, #1
 358 011e DBB2     		uxtb	r3, r3
 359              	.L31:
 360              		.loc 1 157 0
 361 0120 0199     		ldr	r1, [sp, #4]
 362 0122 3268     		ldr	r2, [r6]
 363              		.loc 1 155 0
 364 0124 2370     		strb	r3, [r4]
 365              		.loc 1 157 0
 366 0126 9142     		cmp	r1, r2
 367              		.loc 1 154 0
 368 0128 4FF00003 		mov	r3, #0
 369 012c 3B80     		strh	r3, [r7]	@ movhi
 370              		.loc 1 157 0
 371 012e 36D1     		bne	.L38
 372 0130 2648     		ldr	r0, .L41+36
 373              		.loc 1 159 0
 374 0132 03B0     		add	sp, sp, #12
 375              		.cfi_remember_state
 376              		.cfi_def_cfa_offset 36
 377              		@ sp needed
 378 0134 BDE8F04F 		pop	{r4, r5, r6, r7, r8, r9, r10, fp, lr}
 379              		.cfi_restore 14
 380              		.cfi_restore 11
 381              		.cfi_restore 10
 382              		.cfi_restore 9
 383              		.cfi_restore 8
 384              		.cfi_restore 7
 385              		.cfi_restore 6
 386              		.cfi_restore 5
 387              		.cfi_restore 4
 388              		.cfi_def_cfa_offset 0
 389              		.loc 1 157 0
 390 0138 FFF7FEBF 		b	sound_remote
 391              	.LVL33:
 392              	.L25:
 393              		.cfi_restore_state
 394              		.loc 1 123 0
 395 013c B2F5006F 		cmp	r2, #2048
 396 0140 BCD2     		bcs	.L27
 397              	.LVL34:
 398              	.L24:
 399              		.loc 1 159 0
ARM GAS  C:\Users\FFDD~1\AppData\Local\Temp\ccwoACCD.s 			page 8


 400 0142 019A     		ldr	r2, [sp, #4]
 401 0144 3368     		ldr	r3, [r6]
 402 0146 9A42     		cmp	r2, r3
 403 0148 29D1     		bne	.L38
 404 014a 03B0     		add	sp, sp, #12
 405              		.cfi_remember_state
 406              		.cfi_def_cfa_offset 36
 407              		@ sp needed
 408 014c BDE8F08F 		pop	{r4, r5, r6, r7, r8, r9, r10, fp, pc}
 409              	.LVL35:
 410              	.L30:
 411              		.cfi_restore_state
 412              	.LBB56:
 413              	.LBB57:
 414              	.LBB58:
 415              	.LBB59:
 416              	.LBB60:
 417              	.LBB61:
 418              	.LBB62:
 419              		.file 2 "../e-puck2_main-processor/ChibiOS//os/ext/CMSIS/include/core_cmFunc.h"
 420              		.loc 2 546 0
 421 0150 2023     		movs	r3, #32
 422              		.syntax unified
 423              	@ 546 "../e-puck2_main-processor/ChibiOS//os/ext/CMSIS/include/core_cmFunc.h" 1
 424 0152 83F31188 		MSR basepri, r3
 425              	@ 0 "" 2
 426              	.LVL36:
 427              		.thumb
 428              		.syntax unified
 429              	.LBE62:
 430              	.LBE61:
 431              	.LBE60:
 432              		.file 3 "../e-puck2_main-processor/ChibiOS//os/rt/include/chsys.h"
 433              		.loc 3 349 0
 434 0156 FFF7FEFF 		bl	_stats_start_measure_crit_thd
 435              	.LVL37:
 436              		.loc 3 350 0
 437 015a FFF7FEFF 		bl	_dbg_check_lock
 438              	.LVL38:
 439              	.LBE59:
 440              	.LBE58:
 441              	.LBB63:
 442              	.LBB64:
 443              		.file 4 "../e-puck2_main-processor/ChibiOS//os/rt/include/chbsem.h"
 444              		.loc 4 268 0
 445 015e FFF7FEFF 		bl	chDbgCheckClassI
 446              	.LVL39:
 447              		.loc 4 270 0
 448 0162 1D48     		ldr	r0, .L41+48
 449 0164 8368     		ldr	r3, [r0, #8]
 450 0166 002B     		cmp	r3, #0
 451 0168 16DD     		ble	.L40
 452              	.L32:
 453              	.LVL40:
 454              	.LBE64:
 455              	.LBE63:
 456              		.loc 4 286 0
ARM GAS  C:\Users\FFDD~1\AppData\Local\Temp\ccwoACCD.s 			page 9


 457 016a FFF7FEFF 		bl	chSchRescheduleS
 458              	.LVL41:
 459              	.LBB66:
 460              	.LBB67:
 461              		.loc 3 360 0
 462 016e FFF7FEFF 		bl	_dbg_check_unlock
 463              	.LVL42:
 464              		.loc 3 361 0
 465 0172 FFF7FEFF 		bl	_stats_stop_measure_crit_thd
 466              	.LVL43:
 467              		.loc 3 367 0
 468 0176 194B     		ldr	r3, .L41+52
 469 0178 1A68     		ldr	r2, [r3]
 470 017a 9A42     		cmp	r2, r3
 471 017c 07D0     		beq	.L33
 472 017e 9969     		ldr	r1, [r3, #24]
 473 0180 9368     		ldr	r3, [r2, #8]
 474 0182 8A68     		ldr	r2, [r1, #8]
 475 0184 9A42     		cmp	r2, r3
 476 0186 02D2     		bcs	.L33
 477 0188 1548     		ldr	r0, .L41+56
 478 018a FFF7FEFF 		bl	chSysHalt
 479              	.LVL44:
 480              	.L33:
 481              	.LBB68:
 482              	.LBB69:
 483              	.LBB70:
 484              		.loc 2 546 0
 485 018e 0023     		movs	r3, #0
 486              		.syntax unified
 487              	@ 546 "../e-puck2_main-processor/ChibiOS//os/ext/CMSIS/include/core_cmFunc.h" 1
 488 0190 83F31188 		MSR basepri, r3
 489              	@ 0 "" 2
 490              	.LVL45:
 491              		.thumb
 492              		.syntax unified
 493 0194 0123     		movs	r3, #1
 494 0196 C3E7     		b	.L31
 495              	.LVL46:
 496              	.L40:
 497              	.LBE70:
 498              	.LBE69:
 499              	.LBE68:
 500              	.LBE67:
 501              	.LBE66:
 502              	.LBB71:
 503              	.LBB65:
 504              		.loc 4 271 0
 505 0198 FFF7FEFF 		bl	chSemSignalI
 506              	.LVL47:
 507 019c E5E7     		b	.L32
 508              	.LVL48:
 509              	.L38:
 510              	.LBE65:
 511              	.LBE71:
 512              	.LBE57:
 513              	.LBE56:
ARM GAS  C:\Users\FFDD~1\AppData\Local\Temp\ccwoACCD.s 			page 10


 514              		.loc 1 159 0
 515 019e FFF7FEFF 		bl	__stack_chk_fail
 516              	.LVL49:
 517              	.L39:
 518 01a2 3A80     		strh	r2, [r7]	@ movhi
 519 01a4 CDE7     		b	.L24
 520              	.L42:
 521 01a6 00BF     		.align	2
 522              	.L41:
 523 01a8 00000000 		.word	__stack_chk_guard
 524 01ac 00000000 		.word	.LANCHOR0
 525 01b0 00000000 		.word	0
 526 01b4 00000000 		.word	micRight_cmplx_input
 527 01b8 00000000 		.word	.LANCHOR1
 528 01bc 00000000 		.word	micLeft_cmplx_input
 529 01c0 00000000 		.word	micFront_cmplx_input
 530 01c4 00000000 		.word	micBack_cmplx_input
 531 01c8 00000000 		.word	micRight_output
 532 01cc 00000000 		.word	micLeft_output
 533 01d0 00000000 		.word	micFront_output
 534 01d4 00000000 		.word	micBack_output
 535 01d8 00000000 		.word	.LANCHOR2
 536 01dc 00000000 		.word	ch
 537 01e0 00000000 		.word	.LANCHOR3
 538              		.cfi_endproc
 539              	.LFE291:
 540              		.size	processAudioData, .-processAudioData
 541              		.section	.text.wait_send_to_computer,"ax",%progbits
 542              		.align	1
 543              		.p2align 4,,15
 544              		.global	wait_send_to_computer
 545              		.syntax unified
 546              		.thumb
 547              		.thumb_func
 548              		.fpu fpv4-sp-d16
 549              		.type	wait_send_to_computer, %function
 550              	wait_send_to_computer:
 551              	.LFB292:
 552              		.loc 1 161 0
 553              		.cfi_startproc
 554              		@ args = 0, pretend = 0, frame = 8
 555              		@ frame_needed = 0, uses_anonymous_args = 0
 556 0000 00B5     		push	{lr}
 557              		.cfi_def_cfa_offset 4
 558              		.cfi_offset 14, -4
 559 0002 084B     		ldr	r3, .L48
 560 0004 83B0     		sub	sp, sp, #12
 561              		.cfi_def_cfa_offset 16
 562              		.loc 1 161 0
 563 0006 1A68     		ldr	r2, [r3]
 564 0008 0192     		str	r2, [sp, #4]
 565              	.LVL50:
 566              	.LBB72:
 567              	.LBB73:
 568              		.loc 4 143 0
 569 000a 019A     		ldr	r2, [sp, #4]
 570 000c 1B68     		ldr	r3, [r3]
ARM GAS  C:\Users\FFDD~1\AppData\Local\Temp\ccwoACCD.s 			page 11


 571 000e 9A42     		cmp	r2, r3
 572 0010 05D1     		bne	.L47
 573 0012 0548     		ldr	r0, .L48+4
 574              	.LBE73:
 575              	.LBE72:
 576              		.loc 1 163 0
 577 0014 03B0     		add	sp, sp, #12
 578              		.cfi_remember_state
 579              		.cfi_def_cfa_offset 4
 580              		@ sp needed
 581 0016 5DF804EB 		ldr	lr, [sp], #4
 582              		.cfi_restore 14
 583              		.cfi_def_cfa_offset 0
 584              	.LBB75:
 585              	.LBB74:
 586              		.loc 4 143 0
 587 001a FFF7FEBF 		b	chSemWait
 588              	.LVL51:
 589              	.L47:
 590              		.cfi_restore_state
 591 001e FFF7FEFF 		bl	__stack_chk_fail
 592              	.LVL52:
 593              	.L49:
 594 0022 00BF     		.align	2
 595              	.L48:
 596 0024 00000000 		.word	__stack_chk_guard
 597 0028 00000000 		.word	.LANCHOR2
 598              	.LBE74:
 599              	.LBE75:
 600              		.cfi_endproc
 601              	.LFE292:
 602              		.size	wait_send_to_computer, .-wait_send_to_computer
 603              		.section	.text.get_audio_buffer_ptr,"ax",%progbits
 604              		.align	1
 605              		.p2align 4,,15
 606              		.global	get_audio_buffer_ptr
 607              		.syntax unified
 608              		.thumb
 609              		.thumb_func
 610              		.fpu fpv4-sp-d16
 611              		.type	get_audio_buffer_ptr, %function
 612              	get_audio_buffer_ptr:
 613              	.LFB293:
 614              		.loc 1 165 0
 615              		.cfi_startproc
 616              		@ args = 0, pretend = 0, frame = 8
 617              		@ frame_needed = 0, uses_anonymous_args = 0
 618              	.LVL53:
 619 0000 00B5     		push	{lr}
 620              		.cfi_def_cfa_offset 4
 621              		.cfi_offset 14, -4
 622 0002 164B     		ldr	r3, .L63
 623 0004 83B0     		sub	sp, sp, #12
 624              		.cfi_def_cfa_offset 16
 625              		.loc 1 165 0
 626 0006 1A68     		ldr	r2, [r3]
 627 0008 0192     		str	r2, [sp, #4]
ARM GAS  C:\Users\FFDD~1\AppData\Local\Temp\ccwoACCD.s 			page 12


 628              		.loc 1 166 0
 629 000a 88B1     		cbz	r0, .L53
 630              		.loc 1 169 0
 631 000c 0128     		cmp	r0, #1
 632 000e 17D0     		beq	.L54
 633              		.loc 1 172 0
 634 0010 0228     		cmp	r0, #2
 635 0012 19D0     		beq	.L55
 636              		.loc 1 175 0
 637 0014 0328     		cmp	r0, #3
 638 0016 15D0     		beq	.L56
 639              		.loc 1 178 0
 640 0018 0428     		cmp	r0, #4
 641 001a 17D0     		beq	.L57
 642              		.loc 1 181 0
 643 001c 0528     		cmp	r0, #5
 644 001e 17D0     		beq	.L58
 645              		.loc 1 184 0
 646 0020 0628     		cmp	r0, #6
 647 0022 17D0     		beq	.L59
 648              		.loc 1 191 0
 649 0024 0E4A     		ldr	r2, .L63+4
 650              		.loc 1 187 0
 651 0026 0728     		cmp	r0, #7
 652              		.loc 1 191 0
 653 0028 0CBF     		ite	eq
 654 002a 1046     		moveq	r0, r2
 655              	.LVL54:
 656 002c 0020     		movne	r0, #0
 657 002e 00E0     		b	.L50
 658              	.LVL55:
 659              	.L53:
 660              		.loc 1 167 0
 661 0030 0C48     		ldr	r0, .L63+8
 662              	.LVL56:
 663              	.L50:
 664              		.loc 1 193 0
 665 0032 019A     		ldr	r2, [sp, #4]
 666 0034 1B68     		ldr	r3, [r3]
 667 0036 9A42     		cmp	r2, r3
 668 0038 0ED1     		bne	.L62
 669 003a 03B0     		add	sp, sp, #12
 670              		.cfi_remember_state
 671              		.cfi_def_cfa_offset 4
 672              		@ sp needed
 673 003c 5DF804FB 		ldr	pc, [sp], #4
 674              	.LVL57:
 675              	.L54:
 676              		.cfi_restore_state
 677              		.loc 1 170 0
 678 0040 0948     		ldr	r0, .L63+12
 679              	.LVL58:
 680 0042 F6E7     		b	.L50
 681              	.LVL59:
 682              	.L56:
 683              		.loc 1 176 0
 684 0044 0948     		ldr	r0, .L63+16
ARM GAS  C:\Users\FFDD~1\AppData\Local\Temp\ccwoACCD.s 			page 13


 685              	.LVL60:
 686 0046 F4E7     		b	.L50
 687              	.LVL61:
 688              	.L55:
 689              		.loc 1 173 0
 690 0048 0948     		ldr	r0, .L63+20
 691              	.LVL62:
 692 004a F2E7     		b	.L50
 693              	.LVL63:
 694              	.L57:
 695              		.loc 1 179 0
 696 004c 0948     		ldr	r0, .L63+24
 697              	.LVL64:
 698 004e F0E7     		b	.L50
 699              	.LVL65:
 700              	.L58:
 701              		.loc 1 182 0
 702 0050 0948     		ldr	r0, .L63+28
 703              	.LVL66:
 704 0052 EEE7     		b	.L50
 705              	.LVL67:
 706              	.L59:
 707              		.loc 1 185 0
 708 0054 0948     		ldr	r0, .L63+32
 709              	.LVL68:
 710 0056 ECE7     		b	.L50
 711              	.L62:
 712              		.loc 1 193 0
 713 0058 FFF7FEFF 		bl	__stack_chk_fail
 714              	.LVL69:
 715              	.L64:
 716              		.align	2
 717              	.L63:
 718 005c 00000000 		.word	__stack_chk_guard
 719 0060 00000000 		.word	micBack_output
 720 0064 00000000 		.word	micLeft_cmplx_input
 721 0068 00000000 		.word	micRight_cmplx_input
 722 006c 00000000 		.word	micBack_cmplx_input
 723 0070 00000000 		.word	micFront_cmplx_input
 724 0074 00000000 		.word	micLeft_output
 725 0078 00000000 		.word	micRight_output
 726 007c 00000000 		.word	micFront_output
 727              		.cfi_endproc
 728              	.LFE293:
 729              		.size	get_audio_buffer_ptr, .-get_audio_buffer_ptr
 730              		.section	.bss.micBack_cmplx_input,"aw",%nobits
 731              		.align	2
 732              		.type	micBack_cmplx_input, %object
 733              		.size	micBack_cmplx_input, 8192
 734              	micBack_cmplx_input:
 735 0000 00000000 		.space	8192
 735      00000000 
 735      00000000 
 735      00000000 
 735      00000000 
 736              		.section	.bss.micBack_output,"aw",%nobits
 737              		.align	2
ARM GAS  C:\Users\FFDD~1\AppData\Local\Temp\ccwoACCD.s 			page 14


 738              		.type	micBack_output, %object
 739              		.size	micBack_output, 4096
 740              	micBack_output:
 741 0000 00000000 		.space	4096
 741      00000000 
 741      00000000 
 741      00000000 
 741      00000000 
 742              		.section	.bss.micFront_cmplx_input,"aw",%nobits
 743              		.align	2
 744              		.type	micFront_cmplx_input, %object
 745              		.size	micFront_cmplx_input, 8192
 746              	micFront_cmplx_input:
 747 0000 00000000 		.space	8192
 747      00000000 
 747      00000000 
 747      00000000 
 747      00000000 
 748              		.section	.bss.micFront_output,"aw",%nobits
 749              		.align	2
 750              		.type	micFront_output, %object
 751              		.size	micFront_output, 4096
 752              	micFront_output:
 753 0000 00000000 		.space	4096
 753      00000000 
 753      00000000 
 753      00000000 
 753      00000000 
 754              		.section	.bss.micLeft_cmplx_input,"aw",%nobits
 755              		.align	2
 756              		.type	micLeft_cmplx_input, %object
 757              		.size	micLeft_cmplx_input, 8192
 758              	micLeft_cmplx_input:
 759 0000 00000000 		.space	8192
 759      00000000 
 759      00000000 
 759      00000000 
 759      00000000 
 760              		.section	.bss.micLeft_output,"aw",%nobits
 761              		.align	2
 762              		.type	micLeft_output, %object
 763              		.size	micLeft_output, 4096
 764              	micLeft_output:
 765 0000 00000000 		.space	4096
 765      00000000 
 765      00000000 
 765      00000000 
 765      00000000 
 766              		.section	.bss.micRight_cmplx_input,"aw",%nobits
 767              		.align	2
 768              		.type	micRight_cmplx_input, %object
 769              		.size	micRight_cmplx_input, 8192
 770              	micRight_cmplx_input:
 771 0000 00000000 		.space	8192
 771      00000000 
 771      00000000 
 771      00000000 
ARM GAS  C:\Users\FFDD~1\AppData\Local\Temp\ccwoACCD.s 			page 15


 771      00000000 
 772              		.section	.bss.micRight_output,"aw",%nobits
 773              		.align	2
 774              		.type	micRight_output, %object
 775              		.size	micRight_output, 4096
 776              	micRight_output:
 777 0000 00000000 		.space	4096
 777      00000000 
 777      00000000 
 777      00000000 
 777      00000000 
 778              		.section	.bss.mustSend.14194,"aw",%nobits
 779              		.set	.LANCHOR1,. + 0
 780              		.type	mustSend.14194, %object
 781              		.size	mustSend.14194, 1
 782              	mustSend.14194:
 783 0000 00       		.space	1
 784              		.section	.bss.nb_samples.14193,"aw",%nobits
 785              		.align	1
 786              		.set	.LANCHOR0,. + 0
 787              		.type	nb_samples.14193, %object
 788              		.size	nb_samples.14193, 2
 789              	nb_samples.14193:
 790 0000 0000     		.space	2
 791              		.section	.data.sendToComputer_sem,"aw",%progbits
 792              		.align	2
 793              		.set	.LANCHOR2,. + 0
 794              		.type	sendToComputer_sem, %object
 795              		.size	sendToComputer_sem, 12
 796              	sendToComputer_sem:
 797 0000 00000000 		.word	sendToComputer_sem
 798 0004 00000000 		.word	sendToComputer_sem
 799 0008 00000000 		.word	0
 800              		.section	.rodata.__func__.7153,"a",%progbits
 801              		.align	2
 802              		.set	.LANCHOR3,. + 0
 803              		.type	__func__.7153, %object
 804              		.size	__func__.7153, 12
 805              	__func__.7153:
 806 0000 63685379 		.ascii	"chSysUnlock\000"
 806      73556E6C 
 806      6F636B00 
 807              		.text
 808              	.Letext0:
 809              		.file 5 "c:\\eclipse\\eclipse_e-puck2\\tools\\gcc-arm-none-eabi-7-2017-q4-major-win32\\lib\\gcc\\a
 810              		.file 6 "c:\\eclipse\\eclipse_e-puck2\\tools\\gcc-arm-none-eabi-7-2017-q4-major-win32\\arm-none-ea
 811              		.file 7 "c:\\eclipse\\eclipse_e-puck2\\tools\\gcc-arm-none-eabi-7-2017-q4-major-win32\\arm-none-ea
 812              		.file 8 "../e-puck2_main-processor/ChibiOS//os/rt/ports/ARMCMx/compilers/GCC/chtypes.h"
 813              		.file 9 "../e-puck2_main-processor/ChibiOS//os/rt/include/chsystypes.h"
 814              		.file 10 "../e-puck2_main-processor/ChibiOS//os/rt/include/chschd.h"
 815              		.file 11 "../e-puck2_main-processor/ChibiOS//os/ext/CMSIS/include/core_cm4.h"
 816              		.file 12 "../e-puck2_main-processor/ChibiOS//os/ext/CMSIS/ST/system_stm32f4xx.h"
 817              		.file 13 "../e-puck2_main-processor/ChibiOS//os/ext/CMSIS/ST/stm32f407xx.h"
 818              		.file 14 "../e-puck2_main-processor/ChibiOS//os/rt/ports/ARMCMx/chcore.h"
 819              		.file 15 "../e-puck2_main-processor/ChibiOS//os/rt/ports/ARMCMx/chcore_v7m.h"
 820              		.file 16 "../e-puck2_main-processor/ChibiOS//os/rt/include/chdebug.h"
 821              		.file 17 "../e-puck2_main-processor/ChibiOS//os/rt/include/chtm.h"
ARM GAS  C:\Users\FFDD~1\AppData\Local\Temp\ccwoACCD.s 			page 16


 822              		.file 18 "../e-puck2_main-processor/ChibiOS//os/rt/include/chstats.h"
 823              		.file 19 "../e-puck2_main-processor/ChibiOS//os/rt/include/chsem.h"
 824              		.file 20 "../e-puck2_main-processor/ChibiOS//os/rt/include/chmtx.h"
 825              		.file 21 "../e-puck2_main-processor/ChibiOS//os/rt/include/chregistry.h"
 826              		.file 22 "../e-puck2_main-processor/ChibiOS//os/rt/include/chevents.h"
 827              		.file 23 "../e-puck2_main-processor/ChibiOS//os/rt/include/chqueues.h"
 828              		.file 24 "../e-puck2_main-processor/ChibiOS//os/hal/ports/STM32/STM32F4xx/stm32_dma.h"
 829              		.file 25 "../e-puck2_main-processor/ChibiOS//os/hal/include/hal_ioblock.h"
 830              		.file 26 "../e-puck2_main-processor/ChibiOS//os/hal/ports/STM32/LLD/GPIOv2/pal_lld.h"
 831              		.file 27 "../e-puck2_main-processor/ChibiOS//os/hal/include/adc.h"
 832              		.file 28 "../e-puck2_main-processor/ChibiOS//os/hal/ports/STM32/STM32F4xx/adc_lld.h"
 833              		.file 29 "../e-puck2_main-processor/ChibiOS//os/hal/include/can.h"
 834              		.file 30 "../e-puck2_main-processor/ChibiOS//os/hal/ports/STM32/LLD/can_lld.h"
 835              		.file 31 "../e-puck2_main-processor/ChibiOS//os/hal/include/dac.h"
 836              		.file 32 "../e-puck2_main-processor/ChibiOS//os/hal/ports/STM32/LLD/DACv1/dac_lld.h"
 837              		.file 33 "../e-puck2_main-processor/ChibiOS//os/hal/include/ext.h"
 838              		.file 34 "../e-puck2_main-processor/ChibiOS//os/hal/ports/STM32/LLD/ext_lld.h"
 839              		.file 35 "../e-puck2_main-processor/ChibiOS//os/hal/include/gpt.h"
 840              		.file 36 "../e-puck2_main-processor/ChibiOS//os/hal/ports/STM32/LLD/TIMv1/gpt_lld.h"
 841              		.file 37 "../e-puck2_main-processor/ChibiOS//os/hal/ports/STM32/LLD/TIMv1/stm32_tim.h"
 842              		.file 38 "../e-puck2_main-processor/ChibiOS//os/hal/include/i2c.h"
 843              		.file 39 "../e-puck2_main-processor/ChibiOS//os/hal/ports/STM32/LLD/I2Cv1/i2c_lld.h"
 844              		.file 40 "../e-puck2_main-processor/ChibiOS//os/hal/include/i2s.h"
 845              		.file 41 "../e-puck2_main-processor/ChibiOS//os/hal/ports/STM32/LLD/SPIv1/i2s_lld.h"
 846              		.file 42 "../e-puck2_main-processor/ChibiOS//os/hal/include/pwm.h"
 847              		.file 43 "../e-puck2_main-processor/ChibiOS//os/hal/ports/STM32/LLD/TIMv1/pwm_lld.h"
 848              		.file 44 "../e-puck2_main-processor/ChibiOS//os/hal/include/serial.h"
 849              		.file 45 "../e-puck2_main-processor/ChibiOS//os/hal/ports/STM32/LLD/USARTv1/serial_lld.h"
 850              		.file 46 "../e-puck2_main-processor/ChibiOS//os/hal/include/sdc.h"
 851              		.file 47 "../e-puck2_main-processor/ChibiOS//os/hal/ports/STM32/LLD/sdc_lld.h"
 852              		.file 48 "../e-puck2_main-processor/ChibiOS//os/hal/include/spi.h"
 853              		.file 49 "../e-puck2_main-processor/ChibiOS//os/hal/ports/STM32/LLD/SPIv1/spi_lld.h"
 854              		.file 50 "../e-puck2_main-processor/ChibiOS//os/hal/include/usb.h"
 855              		.file 51 "../e-puck2_main-processor/ChibiOS//os/hal/ports/STM32/LLD/OTGv1/usb_lld.h"
 856              		.file 52 "../e-puck2_main-processor/ChibiOS//os/hal/ports/STM32/LLD/OTGv1/stm32_otg.h"
 857              		.file 53 "../e-puck2_main-processor/ChibiOS//os/hal/include/serial_usb.h"
 858              		.file 54 "../e-puck2_main-processor/ChibiOS_ext/os/hal/include/../ports/STM32/STM32F4xx/dcmi_lld.h
 859              		.file 55 "c:\\eclipse\\eclipse_e-puck2\\tools\\gcc-arm-none-eabi-7-2017-q4-major-win32\\arm-none-e
 860              		.file 56 "c:\\eclipse\\eclipse_e-puck2\\tools\\gcc-arm-none-eabi-7-2017-q4-major-win32\\arm-none-e
 861              		.file 57 "c:\\eclipse\\eclipse_e-puck2\\tools\\gcc-arm-none-eabi-7-2017-q4-major-win32\\arm-none-e
 862              		.file 58 "../e-puck2_main-processor/src/msgbus/messagebus.h"
 863              		.file 59 "c:\\eclipse\\eclipse_e-puck2\\tools\\gcc-arm-none-eabi-7-2017-q4-major-win32\\arm-none-e
 864              		.file 60 "c:\\eclipse\\eclipse_e-puck2\\tools\\gcc-arm-none-eabi-7-2017-q4-major-win32\\arm-none-e
 865              		.file 61 "../e-puck2_main-processor/src/parameter/parameter.h"
 866              		.file 62 "./main.h"
 867              		.file 63 "../e-puck2_main-processor/src/usbcfg.h"
 868              		.file 64 "./audio_processing.h"
 869              		.file 65 "c:\\eclipse\\eclipse_e-puck2\\tools\\gcc-arm-none-eabi-7-2017-q4-major-win32\\arm-none-e
 870              		.file 66 "./fft.h"
 871              		.file 67 "../e-puck2_main-processor/ChibiOS//os/ext/CMSIS/include/arm_math.h"
 872              		.file 68 "./process_image.h"
 873              		.file 69 "./obstacle.h"