ARM GAS  C:\Users\FFDD~1\AppData\Local\Temp\ccuNhh5U.s 			page 1


   1              		.cpu cortex-m4
   2              		.eabi_attribute 27, 1
   3              		.eabi_attribute 28, 1
   4              		.eabi_attribute 20, 1
   5              		.eabi_attribute 21, 1
   6              		.eabi_attribute 23, 3
   7              		.eabi_attribute 24, 1
   8              		.eabi_attribute 25, 1
   9              		.eabi_attribute 26, 1
  10              		.eabi_attribute 30, 2
  11              		.eabi_attribute 34, 1
  12              		.eabi_attribute 18, 4
  13              		.file	"obstacle.c"
  14              		.text
  15              	.Ltext0:
  16              		.cfi_sections	.debug_frame
  17              		.section	.text.Obstacle,"ax",%progbits
  18              		.align	1
  19              		.p2align 4,,15
  20              		.syntax unified
  21              		.thumb
  22              		.thumb_func
  23              		.fpu fpv4-sp-d16
  24              		.type	Obstacle, %function
  25              	Obstacle:
  26              	.LFB290:
  27              		.file 1 "obstacle.c"
  28              		.loc 1 26 0
  29              		.cfi_startproc
  30              		@ args = 0, pretend = 0, frame = 136
  31              		@ frame_needed = 0, uses_anonymous_args = 0
  32              	.LVL0:
  33 0000 F0B5     		push	{r4, r5, r6, r7, lr}
  34              		.cfi_def_cfa_offset 20
  35              		.cfi_offset 4, -20
  36              		.cfi_offset 5, -16
  37              		.cfi_offset 6, -12
  38              		.cfi_offset 7, -8
  39              		.cfi_offset 14, -4
  40              	.LBB48:
  41              	.LBB49:
  42              		.file 2 "../e-puck2_main-processor/ChibiOS//os/rt/include/chregistry.h"
  43              		.loc 2 135 0
  44 0002 344C     		ldr	r4, .L8
  45              	.LBE49:
  46              	.LBE48:
  47              		.loc 1 26 0
  48 0004 344E     		ldr	r6, .L8+4
  49              	.LBB51:
  50              	.LBB50:
  51              		.loc 2 135 0
  52 0006 A369     		ldr	r3, [r4, #24]
  53 0008 344A     		ldr	r2, .L8+8
  54 000a 9A61     		str	r2, [r3, #24]
  55              	.LBE50:
  56              	.LBE51:
  57              		.loc 1 26 0
ARM GAS  C:\Users\FFDD~1\AppData\Local\Temp\ccuNhh5U.s 			page 2


  58 000c A3B0     		sub	sp, sp, #140
  59              		.cfi_def_cfa_offset 160
  60              		.loc 1 26 0
  61 000e 3368     		ldr	r3, [r6]
  62              		.loc 1 30 0
  63 0010 3349     		ldr	r1, .L8+12
  64 0012 3448     		ldr	r0, .L8+16
  65              	.LVL1:
  66              		.loc 1 26 0
  67 0014 2193     		str	r3, [sp, #132]
  68              		.loc 1 30 0
  69 0016 FFF7FEFF 		bl	messagebus_find_topic_blocking
  70              	.LVL2:
  71              	.LBB52:
  72              	.LBB53:
  73              	.LBB54:
  74              	.LBB55:
  75              	.LBB56:
  76              	.LBB57:
  77              	.LBB58:
  78              		.file 3 "../e-puck2_main-processor/ChibiOS//os/ext/CMSIS/include/core_cmFunc.h"
  79              		.loc 3 546 0
  80 001a 2023     		movs	r3, #32
  81              	.LBE58:
  82              	.LBE57:
  83              	.LBE56:
  84              	.LBE55:
  85              	.LBE54:
  86              	.LBE53:
  87              	.LBE52:
  88              		.loc 1 30 0
  89 001c 0546     		mov	r5, r0
  90              	.LVL3:
  91              	.LBB75:
  92              	.LBB73:
  93              	.LBB63:
  94              	.LBB62:
  95              	.LBB61:
  96              	.LBB60:
  97              	.LBB59:
  98              		.loc 3 546 0
  99              		.syntax unified
 100              	@ 546 "../e-puck2_main-processor/ChibiOS//os/ext/CMSIS/include/core_cmFunc.h" 1
 101 001e 83F31188 		MSR basepri, r3
 102              	@ 0 "" 2
 103              	.LVL4:
 104              		.thumb
 105              		.syntax unified
 106              	.LBE59:
 107              	.LBE60:
 108              	.LBE61:
 109              		.file 4 "../e-puck2_main-processor/ChibiOS//os/rt/include/chsys.h"
 110              		.loc 4 349 0
 111 0022 FFF7FEFF 		bl	_stats_start_measure_crit_thd
 112              	.LVL5:
 113              		.loc 4 350 0
 114 0026 FFF7FEFF 		bl	_dbg_check_lock
ARM GAS  C:\Users\FFDD~1\AppData\Local\Temp\ccuNhh5U.s 			page 3


 115              	.LVL6:
 116              	.LBE62:
 117              	.LBE63:
 118              	.LBB64:
 119              	.LBB65:
 120              		.file 5 "../e-puck2_main-processor/ChibiOS//os/rt/include/chvt.h"
 121              		.loc 5 231 0
 122 002a A76A     		ldr	r7, [r4, #40]
 123              	.LBE65:
 124              	.LBE64:
 125              	.LBB66:
 126              	.LBB67:
 127              		.loc 4 360 0
 128 002c FFF7FEFF 		bl	_dbg_check_unlock
 129              	.LVL7:
 130              		.loc 4 361 0
 131 0030 FFF7FEFF 		bl	_stats_stop_measure_crit_thd
 132              	.LVL8:
 133              		.loc 4 367 0
 134 0034 2368     		ldr	r3, [r4]
 135 0036 A342     		cmp	r3, r4
 136 0038 04D0     		beq	.L2
 137 003a A269     		ldr	r2, [r4, #24]
 138 003c 9B68     		ldr	r3, [r3, #8]
 139 003e 9268     		ldr	r2, [r2, #8]
 140 0040 9A42     		cmp	r2, r3
 141 0042 41D3     		bcc	.L6
 142              	.L2:
 143              	.LVL9:
 144              	.LBB68:
 145              	.LBB69:
 146              	.LBB70:
 147              		.loc 3 546 0
 148 0044 0024     		movs	r4, #0
 149              		.syntax unified
 150              	@ 546 "../e-puck2_main-processor/ChibiOS//os/ext/CMSIS/include/core_cmFunc.h" 1
 151 0046 84F31188 		MSR basepri, r4
 152              	@ 0 "" 2
 153              	.LVL10:
 154              		.thumb
 155              		.syntax unified
 156              	.LBE70:
 157              	.LBE69:
 158              	.LBE68:
 159              	.LBE67:
 160              	.LBE66:
 161              	.LBE73:
 162              	.LBE75:
 163              		.loc 1 42 0
 164 004a 8022     		movs	r2, #128
 165 004c 01A9     		add	r1, sp, #4
 166 004e 2846     		mov	r0, r5
 167 0050 FFF7FEFF 		bl	messagebus_topic_wait
 168              	.LVL11:
 169              		.loc 1 43 0
 170 0054 119D     		ldr	r5, [sp, #68]
 171              	.LVL12:
ARM GAS  C:\Users\FFDD~1\AppData\Local\Temp\ccuNhh5U.s 			page 4


 172              		.loc 1 44 0
 173 0056 189A     		ldr	r2, [sp, #96]
 174              		.loc 1 43 0
 175 0058 129B     		ldr	r3, [sp, #72]
 176              		.loc 1 44 0
 177 005a 1798     		ldr	r0, [sp, #92]
 178 005c C2EBC232 		rsb	r2, r2, r2, lsl #15
 179              		.loc 1 43 0
 180 0060 C5EBC535 		rsb	r5, r5, r5, lsl #15
 181 0064 C3EB4505 		rsb	r5, r3, r5, lsl #1
 182              		.loc 1 44 0
 183 0068 C0EB4200 		rsb	r0, r0, r2, lsl #1
 184              		.loc 1 43 0
 185 006c 05F24C45 		addw	r5, r5, #1100
 186              		.loc 1 44 0
 187 0070 00F24C40 		addw	r0, r0, #1100
 188              		.loc 1 45 0
 189 0074 00B2     		sxth	r0, r0
 190              		.loc 1 43 0
 191 0076 2DB2     		sxth	r5, r5
 192              	.LVL13:
 193              		.loc 1 45 0
 194 0078 FFF7FEFF 		bl	right_motor_set_speed
 195              	.LVL14:
 196              		.loc 1 46 0
 197 007c 2846     		mov	r0, r5
 198 007e FFF7FEFF 		bl	left_motor_set_speed
 199              	.LVL15:
 200              		.loc 1 50 0
 201 0082 2346     		mov	r3, r4
 202 0084 2246     		mov	r2, r4
 203 0086 2046     		mov	r0, r4
 204 0088 0A21     		movs	r1, #10
 205 008a FFF7FEFF 		bl	set_rgb_led
 206              	.LVL16:
 207              		.loc 1 51 0
 208 008e 2346     		mov	r3, r4
 209 0090 2246     		mov	r2, r4
 210 0092 0A21     		movs	r1, #10
 211 0094 0120     		movs	r0, #1
 212 0096 FFF7FEFF 		bl	set_rgb_led
 213              	.LVL17:
 214              		.loc 1 52 0
 215 009a 2346     		mov	r3, r4
 216 009c 2246     		mov	r2, r4
 217 009e 0A21     		movs	r1, #10
 218 00a0 0220     		movs	r0, #2
 219 00a2 FFF7FEFF 		bl	set_rgb_led
 220              	.LVL18:
 221              		.loc 1 53 0
 222 00a6 2346     		mov	r3, r4
 223 00a8 2246     		mov	r2, r4
 224 00aa 0A21     		movs	r1, #10
 225 00ac 0320     		movs	r0, #3
 226 00ae FFF7FEFF 		bl	set_rgb_led
 227              	.LVL19:
 228              		.loc 1 83 0
ARM GAS  C:\Users\FFDD~1\AppData\Local\Temp\ccuNhh5U.s 			page 5


 229 00b2 07F10A01 		add	r1, r7, #10
 230 00b6 3846     		mov	r0, r7
 231 00b8 FFF7FEFF 		bl	chThdSleepUntilWindowed
 232              	.LVL20:
 233              		.loc 1 86 0
 234 00bc 219A     		ldr	r2, [sp, #132]
 235 00be 3368     		ldr	r3, [r6]
 236 00c0 9A42     		cmp	r2, r3
 237 00c2 05D1     		bne	.L7
 238 00c4 23B0     		add	sp, sp, #140
 239              		.cfi_remember_state
 240              		.cfi_def_cfa_offset 20
 241              		@ sp needed
 242 00c6 F0BD     		pop	{r4, r5, r6, r7, pc}
 243              	.LVL21:
 244              	.L6:
 245              		.cfi_restore_state
 246              	.LBB76:
 247              	.LBB74:
 248              	.LBB72:
 249              	.LBB71:
 250              		.loc 4 367 0
 251 00c8 0748     		ldr	r0, .L8+20
 252 00ca FFF7FEFF 		bl	chSysHalt
 253              	.LVL22:
 254 00ce B9E7     		b	.L2
 255              	.LVL23:
 256              	.L7:
 257              	.LBE71:
 258              	.LBE72:
 259              	.LBE74:
 260              	.LBE76:
 261              		.loc 1 86 0
 262 00d0 FFF7FEFF 		bl	__stack_chk_fail
 263              	.LVL24:
 264              	.L9:
 265              		.align	2
 266              	.L8:
 267 00d4 00000000 		.word	ch
 268 00d8 00000000 		.word	__stack_chk_guard
 269 00dc 00000000 		.word	.LANCHOR0
 270 00e0 00000000 		.word	.LC0
 271 00e4 00000000 		.word	bus
 272 00e8 00000000 		.word	.LANCHOR1
 273              		.cfi_endproc
 274              	.LFE290:
 275              		.size	Obstacle, .-Obstacle
 276              		.section	.text.obstacle_start,"ax",%progbits
 277              		.align	1
 278              		.p2align 4,,15
 279              		.global	obstacle_start
 280              		.syntax unified
 281              		.thumb
 282              		.thumb_func
 283              		.fpu fpv4-sp-d16
 284              		.type	obstacle_start, %function
 285              	obstacle_start:
ARM GAS  C:\Users\FFDD~1\AppData\Local\Temp\ccuNhh5U.s 			page 6


 286              	.LFB291:
 287              		.loc 1 89 0
 288              		.cfi_startproc
 289              		@ args = 0, pretend = 0, frame = 8
 290              		@ frame_needed = 0, uses_anonymous_args = 0
 291 0000 10B5     		push	{r4, lr}
 292              		.cfi_def_cfa_offset 8
 293              		.cfi_offset 4, -8
 294              		.cfi_offset 14, -4
 295 0002 0A4C     		ldr	r4, .L14
 296              		.loc 1 90 0
 297 0004 0A4B     		ldr	r3, .L14+4
 298              		.loc 1 89 0
 299 0006 2268     		ldr	r2, [r4]
 300              		.loc 1 90 0
 301 0008 0A48     		ldr	r0, .L14+8
 302              		.loc 1 89 0
 303 000a 84B0     		sub	sp, sp, #16
 304              		.cfi_def_cfa_offset 24
 305              		.loc 1 90 0
 306 000c 40F67811 		movw	r1, #2424
 307              		.loc 1 89 0
 308 0010 0392     		str	r2, [sp, #12]
 309              		.loc 1 90 0
 310 0012 0022     		movs	r2, #0
 311 0014 0092     		str	r2, [sp]
 312 0016 4022     		movs	r2, #64
 313 0018 FFF7FEFF 		bl	chThdCreateStatic
 314              	.LVL25:
 315              		.loc 1 91 0
 316 001c 039A     		ldr	r2, [sp, #12]
 317 001e 2368     		ldr	r3, [r4]
 318 0020 9A42     		cmp	r2, r3
 319 0022 01D1     		bne	.L13
 320 0024 04B0     		add	sp, sp, #16
 321              		.cfi_remember_state
 322              		.cfi_def_cfa_offset 8
 323              		@ sp needed
 324 0026 10BD     		pop	{r4, pc}
 325              	.L13:
 326              		.cfi_restore_state
 327 0028 FFF7FEFF 		bl	__stack_chk_fail
 328              	.LVL26:
 329              	.L15:
 330              		.align	2
 331              	.L14:
 332 002c 00000000 		.word	__stack_chk_guard
 333 0030 00000000 		.word	Obstacle
 334 0034 00000000 		.word	.LANCHOR2
 335              		.cfi_endproc
 336              	.LFE291:
 337              		.size	obstacle_start, .-obstacle_start
 338              		.section	.bss.waObstacle,"aw",%nobits
 339              		.align	3
 340              		.set	.LANCHOR2,. + 0
 341              		.type	waObstacle, %object
 342              		.size	waObstacle, 2424
ARM GAS  C:\Users\FFDD~1\AppData\Local\Temp\ccuNhh5U.s 			page 7


 343              	waObstacle:
 344 0000 00000000 		.space	2424
 344      00000000 
 344      00000000 
 344      00000000 
 344      00000000 
 345              		.section	.rodata.Obstacle.str1.4,"aMS",%progbits,1
 346              		.align	2
 347              	.LC0:
 348 0000 2F70726F 		.ascii	"/proximity\000"
 348      78696D69 
 348      747900
 349              		.section	.rodata.__FUNCTION__.14231,"a",%progbits
 350              		.align	2
 351              		.set	.LANCHOR0,. + 0
 352              		.type	__FUNCTION__.14231, %object
 353              		.size	__FUNCTION__.14231, 9
 354              	__FUNCTION__.14231:
 355 0000 4F627374 		.ascii	"Obstacle\000"
 355      61636C65 
 355      00
 356              		.section	.rodata.__func__.10111,"a",%progbits
 357              		.align	2
 358              		.set	.LANCHOR1,. + 0
 359              		.type	__func__.10111, %object
 360              		.size	__func__.10111, 12
 361              	__func__.10111:
 362 0000 63685379 		.ascii	"chSysUnlock\000"
 362      73556E6C 
 362      6F636B00 
 363              		.text
 364              	.Letext0:
 365              		.file 6 "c:\\eclipse\\eclipse_e-puck2\\tools\\gcc-arm-none-eabi-7-2017-q4-major-win32\\arm-none-ea
 366              		.file 7 "c:\\eclipse\\eclipse_e-puck2\\tools\\gcc-arm-none-eabi-7-2017-q4-major-win32\\arm-none-ea
 367              		.file 8 "c:\\eclipse\\eclipse_e-puck2\\tools\\gcc-arm-none-eabi-7-2017-q4-major-win32\\lib\\gcc\\a
 368              		.file 9 "c:\\eclipse\\eclipse_e-puck2\\tools\\gcc-arm-none-eabi-7-2017-q4-major-win32\\arm-none-ea
 369              		.file 10 "c:\\eclipse\\eclipse_e-puck2\\tools\\gcc-arm-none-eabi-7-2017-q4-major-win32\\arm-none-e
 370              		.file 11 "c:\\eclipse\\eclipse_e-puck2\\tools\\gcc-arm-none-eabi-7-2017-q4-major-win32\\arm-none-e
 371              		.file 12 "c:\\eclipse\\eclipse_e-puck2\\tools\\gcc-arm-none-eabi-7-2017-q4-major-win32\\arm-none-e
 372              		.file 13 "../e-puck2_main-processor/ChibiOS//os/rt/ports/ARMCMx/compilers/GCC/chtypes.h"
 373              		.file 14 "../e-puck2_main-processor/ChibiOS//os/rt/include/chsystypes.h"
 374              		.file 15 "../e-puck2_main-processor/ChibiOS//os/rt/include/chschd.h"
 375              		.file 16 "../e-puck2_main-processor/ChibiOS//os/ext/CMSIS/include/core_cm4.h"
 376              		.file 17 "../e-puck2_main-processor/ChibiOS//os/ext/CMSIS/ST/system_stm32f4xx.h"
 377              		.file 18 "../e-puck2_main-processor/ChibiOS//os/ext/CMSIS/ST/stm32f407xx.h"
 378              		.file 19 "../e-puck2_main-processor/ChibiOS//os/rt/ports/ARMCMx/chcore.h"
 379              		.file 20 "../e-puck2_main-processor/ChibiOS//os/rt/ports/ARMCMx/chcore_v7m.h"
 380              		.file 21 "../e-puck2_main-processor/ChibiOS//os/rt/include/chdebug.h"
 381              		.file 22 "../e-puck2_main-processor/ChibiOS//os/rt/include/chtm.h"
 382              		.file 23 "../e-puck2_main-processor/ChibiOS//os/rt/include/chstats.h"
 383              		.file 24 "../e-puck2_main-processor/ChibiOS//os/rt/include/chsem.h"
 384              		.file 25 "../e-puck2_main-processor/ChibiOS//os/rt/include/chmtx.h"
 385              		.file 26 "../e-puck2_main-processor/ChibiOS//os/rt/include/chevents.h"
 386              		.file 27 "../e-puck2_main-processor/ChibiOS//os/rt/include/chqueues.h"
 387              		.file 28 "../e-puck2_main-processor/ChibiOS//os/hal/ports/STM32/STM32F4xx/stm32_dma.h"
 388              		.file 29 "../e-puck2_main-processor/ChibiOS//os/hal/include/hal_ioblock.h"
 389              		.file 30 "../e-puck2_main-processor/ChibiOS//os/hal/ports/STM32/LLD/GPIOv2/pal_lld.h"
ARM GAS  C:\Users\FFDD~1\AppData\Local\Temp\ccuNhh5U.s 			page 8


 390              		.file 31 "../e-puck2_main-processor/ChibiOS//os/hal/include/adc.h"
 391              		.file 32 "../e-puck2_main-processor/ChibiOS//os/hal/ports/STM32/STM32F4xx/adc_lld.h"
 392              		.file 33 "../e-puck2_main-processor/ChibiOS//os/hal/include/can.h"
 393              		.file 34 "../e-puck2_main-processor/ChibiOS//os/hal/ports/STM32/LLD/can_lld.h"
 394              		.file 35 "../e-puck2_main-processor/ChibiOS//os/hal/include/dac.h"
 395              		.file 36 "../e-puck2_main-processor/ChibiOS//os/hal/ports/STM32/LLD/DACv1/dac_lld.h"
 396              		.file 37 "../e-puck2_main-processor/ChibiOS//os/hal/include/ext.h"
 397              		.file 38 "../e-puck2_main-processor/ChibiOS//os/hal/ports/STM32/LLD/ext_lld.h"
 398              		.file 39 "../e-puck2_main-processor/ChibiOS//os/hal/include/gpt.h"
 399              		.file 40 "../e-puck2_main-processor/ChibiOS//os/hal/ports/STM32/LLD/TIMv1/gpt_lld.h"
 400              		.file 41 "../e-puck2_main-processor/ChibiOS//os/hal/ports/STM32/LLD/TIMv1/stm32_tim.h"
 401              		.file 42 "../e-puck2_main-processor/ChibiOS//os/hal/include/i2c.h"
 402              		.file 43 "../e-puck2_main-processor/ChibiOS//os/hal/ports/STM32/LLD/I2Cv1/i2c_lld.h"
 403              		.file 44 "../e-puck2_main-processor/ChibiOS//os/hal/include/i2s.h"
 404              		.file 45 "../e-puck2_main-processor/ChibiOS//os/hal/ports/STM32/LLD/SPIv1/i2s_lld.h"
 405              		.file 46 "../e-puck2_main-processor/ChibiOS//os/hal/include/pwm.h"
 406              		.file 47 "../e-puck2_main-processor/ChibiOS//os/hal/ports/STM32/LLD/TIMv1/pwm_lld.h"
 407              		.file 48 "../e-puck2_main-processor/ChibiOS//os/hal/include/serial.h"
 408              		.file 49 "../e-puck2_main-processor/ChibiOS//os/hal/ports/STM32/LLD/USARTv1/serial_lld.h"
 409              		.file 50 "../e-puck2_main-processor/ChibiOS//os/hal/include/sdc.h"
 410              		.file 51 "../e-puck2_main-processor/ChibiOS//os/hal/ports/STM32/LLD/sdc_lld.h"
 411              		.file 52 "../e-puck2_main-processor/ChibiOS//os/hal/include/spi.h"
 412              		.file 53 "../e-puck2_main-processor/ChibiOS//os/hal/ports/STM32/LLD/SPIv1/spi_lld.h"
 413              		.file 54 "../e-puck2_main-processor/ChibiOS//os/hal/include/usb.h"
 414              		.file 55 "../e-puck2_main-processor/ChibiOS//os/hal/ports/STM32/LLD/OTGv1/usb_lld.h"
 415              		.file 56 "../e-puck2_main-processor/ChibiOS//os/hal/ports/STM32/LLD/OTGv1/stm32_otg.h"
 416              		.file 57 "../e-puck2_main-processor/ChibiOS//os/hal/include/serial_usb.h"
 417              		.file 58 "../e-puck2_main-processor/ChibiOS_ext/os/hal/include/../ports/STM32/STM32F4xx/dcmi_lld.h
 418              		.file 59 "c:\\eclipse\\eclipse_e-puck2\\tools\\gcc-arm-none-eabi-7-2017-q4-major-win32\\arm-none-e
 419              		.file 60 "../e-puck2_main-processor/src/msgbus/messagebus.h"
 420              		.file 61 "c:\\eclipse\\eclipse_e-puck2\\tools\\gcc-arm-none-eabi-7-2017-q4-major-win32\\arm-none-e
 421              		.file 62 "../e-puck2_main-processor/src/parameter/parameter.h"
 422              		.file 63 "./main.h"
 423              		.file 64 "../e-puck2_main-processor/src/usbcfg.h"
 424              		.file 65 "../e-puck2_main-processor/src/sensors/proximity.h"
 425              		.file 66 "../e-puck2_main-processor/src/audio/play_melody.h"
 426              		.file 67 "../e-puck2_main-processor/ChibiOS//os/rt/include/chthreads.h"
 427              		.file 68 "../e-puck2_main-processor/src/motors.h"
 428              		.file 69 "../e-puck2_main-processor/src/leds.h"