ARM GAS  C:\Users\FFDD~1\AppData\Local\Temp\cczkV1vP.s 			page 1


   1              		.cpu cortex-m4
   2              		.eabi_attribute 27, 1
   3              		.eabi_attribute 28, 1
   4              		.eabi_attribute 20, 1
   5              		.eabi_attribute 21, 1
   6              		.eabi_attribute 23, 3
   7              		.eabi_attribute 24, 1
   8              		.eabi_attribute 25, 1
   9              		.eabi_attribute 26, 1
  10              		.eabi_attribute 30, 2
  11              		.eabi_attribute 34, 1
  12              		.eabi_attribute 18, 4
  13              		.file	"process_image.c"
  14              		.text
  15              	.Ltext0:
  16              		.cfi_sections	.debug_frame
  17              		.section	.text.CaptureImage,"ax",%progbits
  18              		.align	1
  19              		.p2align 4,,15
  20              		.syntax unified
  21              		.thumb
  22              		.thumb_func
  23              		.fpu fpv4-sp-d16
  24              		.type	CaptureImage, %function
  25              	CaptureImage:
  26              	.LFB258:
  27              		.file 1 "process_image.c"
  28              		.loc 1 147 0
  29              		.cfi_startproc
  30              		@ Volatile: function does not return.
  31              		@ args = 0, pretend = 0, frame = 8
  32              		@ frame_needed = 0, uses_anonymous_args = 0
  33              	.LVL0:
  34 0000 80B5     		push	{r7, lr}
  35              		.cfi_def_cfa_offset 8
  36              		.cfi_offset 7, -8
  37              		.cfi_offset 14, -4
  38              	.LBB53:
  39              	.LBB54:
  40              		.file 2 "../e-puck2_main-processor/ChibiOS//os/rt/include/chregistry.h"
  41              		.loc 2 135 0
  42 0002 234C     		ldr	r4, .L8
  43              	.LBE54:
  44              	.LBE53:
  45              		.loc 1 147 0
  46 0004 234A     		ldr	r2, .L8+4
  47              	.LBB57:
  48              	.LBB55:
  49              		.loc 2 135 0
  50 0006 A369     		ldr	r3, [r4, #24]
  51 0008 2349     		ldr	r1, .L8+8
  52              	.LBE55:
  53              	.LBE57:
  54              		.loc 1 147 0
  55 000a 1668     		ldr	r6, [r2]
  56              	.LBB58:
  57              	.LBB56:
ARM GAS  C:\Users\FFDD~1\AppData\Local\Temp\cczkV1vP.s 			page 2


  58              		.loc 2 135 0
  59 000c 9961     		str	r1, [r3, #24]
  60              	.LBE56:
  61              	.LBE58:
  62              		.loc 1 147 0
  63 000e 86B0     		sub	sp, sp, #24
  64              		.cfi_def_cfa_offset 32
  65              		.loc 1 153 0
  66 0010 0223     		movs	r3, #2
  67 0012 2025     		movs	r5, #32
  68 0014 0A22     		movs	r2, #10
  69 0016 0021     		movs	r1, #0
  70 0018 0093     		str	r3, [sp]
  71              		.loc 1 147 0
  72 001a 0596     		str	r6, [sp, #20]
  73              		.loc 1 153 0
  74 001c 4FF42073 		mov	r3, #640
  75 0020 CDE90155 		strd	r5, r5, [sp, #4]
  76 0024 3020     		movs	r0, #48
  77              	.LVL1:
  78 0026 1D4E     		ldr	r6, .L8+12
  79              	.LBB59:
  80              	.LBB60:
  81              	.LBB61:
  82              	.LBB62:
  83              		.file 3 "../e-puck2_main-processor/ChibiOS//os/rt/include/chsys.h"
  84              		.loc 3 367 0
  85 0028 1D4F     		ldr	r7, .L8+16
  86              	.LBE62:
  87              	.LBE61:
  88              	.LBE60:
  89              	.LBE59:
  90              		.loc 1 153 0
  91 002a FFF7FEFF 		bl	po8030_advanced_config
  92              	.LVL2:
  93              		.loc 1 154 0
  94 002e FFF7FEFF 		bl	dcmi_enable_double_buffering
  95              	.LVL3:
  96              		.loc 1 155 0
  97 0032 0020     		movs	r0, #0
  98 0034 FFF7FEFF 		bl	dcmi_set_capture_mode
  99              	.LVL4:
 100              	.LBB80:
 101              	.LBB77:
 102              	.LBB67:
 103              	.LBB68:
 104              		.file 4 "../e-puck2_main-processor/ChibiOS//os/rt/include/chbsem.h"
 105              		.loc 4 271 0
 106 0038 B046     		mov	r8, r6
 107              	.LBE68:
 108              	.LBE67:
 109              	.LBE77:
 110              	.LBE80:
 111              		.loc 1 156 0
 112 003a FFF7FEFF 		bl	dcmi_prepare
 113              	.LVL5:
 114 003e 13E0     		b	.L4
ARM GAS  C:\Users\FFDD~1\AppData\Local\Temp\cczkV1vP.s 			page 3


 115              	.LVL6:
 116              	.L2:
 117              	.LBB81:
 118              	.LBB78:
 119              		.loc 4 286 0
 120 0040 FFF7FEFF 		bl	chSchRescheduleS
 121              	.LVL7:
 122              	.LBB70:
 123              	.LBB66:
 124              		.loc 3 360 0
 125 0044 FFF7FEFF 		bl	_dbg_check_unlock
 126              	.LVL8:
 127              		.loc 3 361 0
 128 0048 FFF7FEFF 		bl	_stats_stop_measure_crit_thd
 129              	.LVL9:
 130              		.loc 3 367 0
 131 004c 2368     		ldr	r3, [r4]
 132 004e A342     		cmp	r3, r4
 133 0050 07D0     		beq	.L3
 134 0052 A269     		ldr	r2, [r4, #24]
 135 0054 9B68     		ldr	r3, [r3, #8]
 136 0056 9268     		ldr	r2, [r2, #8]
 137 0058 9A42     		cmp	r2, r3
 138 005a 02D2     		bcs	.L3
 139 005c 3846     		mov	r0, r7
 140 005e FFF7FEFF 		bl	chSysHalt
 141              	.LVL10:
 142              	.L3:
 143              	.LBB63:
 144              	.LBB64:
 145              	.LBB65:
 146              		.file 5 "../e-puck2_main-processor/ChibiOS//os/ext/CMSIS/include/core_cmFunc.h"
 147              		.loc 5 546 0
 148 0062 0023     		movs	r3, #0
 149              		.syntax unified
 150              	@ 546 "../e-puck2_main-processor/ChibiOS//os/ext/CMSIS/include/core_cmFunc.h" 1
 151 0064 83F31188 		MSR basepri, r3
 152              	@ 0 "" 2
 153              	.LVL11:
 154              		.thumb
 155              		.syntax unified
 156              	.L4:
 157              	.LBE65:
 158              	.LBE64:
 159              	.LBE63:
 160              	.LBE66:
 161              	.LBE70:
 162              	.LBE78:
 163              	.LBE81:
 164              		.loc 1 163 0 discriminator 1
 165 0068 FFF7FEFF 		bl	dcmi_capture_start
 166              	.LVL12:
 167              		.loc 1 165 0 discriminator 1
 168 006c FFF7FEFF 		bl	wait_image_ready
 169              	.LVL13:
 170              	.LBB82:
 171              	.LBB79:
ARM GAS  C:\Users\FFDD~1\AppData\Local\Temp\cczkV1vP.s 			page 4


 172              	.LBB71:
 173              	.LBB72:
 174              	.LBB73:
 175              	.LBB74:
 176              	.LBB75:
 177              		.loc 5 546 0 discriminator 1
 178              		.syntax unified
 179              	@ 546 "../e-puck2_main-processor/ChibiOS//os/ext/CMSIS/include/core_cmFunc.h" 1
 180 0070 85F31188 		MSR basepri, r5
 181              	@ 0 "" 2
 182              	.LVL14:
 183              		.thumb
 184              		.syntax unified
 185              	.LBE75:
 186              	.LBE74:
 187              	.LBE73:
 188              		.loc 3 349 0 discriminator 1
 189 0074 FFF7FEFF 		bl	_stats_start_measure_crit_thd
 190              	.LVL15:
 191              		.loc 3 350 0 discriminator 1
 192 0078 FFF7FEFF 		bl	_dbg_check_lock
 193              	.LVL16:
 194              	.LBE72:
 195              	.LBE71:
 196              	.LBB76:
 197              	.LBB69:
 198              		.loc 4 268 0 discriminator 1
 199 007c FFF7FEFF 		bl	chDbgCheckClassI
 200              	.LVL17:
 201              		.loc 4 270 0 discriminator 1
 202 0080 B368     		ldr	r3, [r6, #8]
 203 0082 002B     		cmp	r3, #0
 204 0084 DCDC     		bgt	.L2
 205              		.loc 4 271 0
 206 0086 4046     		mov	r0, r8
 207 0088 FFF7FEFF 		bl	chSemSignalI
 208              	.LVL18:
 209 008c D8E7     		b	.L2
 210              	.L9:
 211 008e 00BF     		.align	2
 212              	.L8:
 213 0090 00000000 		.word	ch
 214 0094 00000000 		.word	__stack_chk_guard
 215 0098 00000000 		.word	.LANCHOR0
 216 009c 00000000 		.word	.LANCHOR1
 217 00a0 00000000 		.word	.LANCHOR2
 218              	.LBE69:
 219              	.LBE76:
 220              	.LBE79:
 221              	.LBE82:
 222              		.cfi_endproc
 223              	.LFE258:
 224              		.size	CaptureImage, .-CaptureImage
 225              		.section	.text.extract_line_width,"ax",%progbits
 226              		.align	1
 227              		.p2align 4,,15
 228              		.global	extract_line_width
ARM GAS  C:\Users\FFDD~1\AppData\Local\Temp\cczkV1vP.s 			page 5


 229              		.syntax unified
 230              		.thumb
 231              		.thumb_func
 232              		.fpu fpv4-sp-d16
 233              		.type	extract_line_width, %function
 234              	extract_line_width:
 235              	.LFB257:
 236              		.loc 1 23 0
 237              		.cfi_startproc
 238              		@ args = 0, pretend = 0, frame = 8
 239              		@ frame_needed = 0, uses_anonymous_args = 0
 240              	.LVL19:
 241 0000 2DE9F04F 		push	{r4, r5, r6, r7, r8, r9, r10, fp, lr}
 242              		.cfi_def_cfa_offset 36
 243              		.cfi_offset 4, -36
 244              		.cfi_offset 5, -32
 245              		.cfi_offset 6, -28
 246              		.cfi_offset 7, -24
 247              		.cfi_offset 8, -20
 248              		.cfi_offset 9, -16
 249              		.cfi_offset 10, -12
 250              		.cfi_offset 11, -8
 251              		.cfi_offset 14, -4
 252 0004 A24C     		ldr	r4, .L104
 253 0006 83B0     		sub	sp, sp, #12
 254              		.cfi_def_cfa_offset 48
 255              		.loc 1 23 0
 256 0008 2368     		ldr	r3, [r4]
 257 000a 0193     		str	r3, [sp, #4]
 258              		.loc 1 25 0
 259 000c 0022     		movs	r2, #0
 260 000e 431E     		subs	r3, r0, #1
 261 0010 00F27F25 		addw	r5, r0, #639
 262 0014 ADF80220 		strh	r2, [sp, #2]	@ movhi
 263              	.LVL20:
 264              	.L11:
 265              	.LBB83:
 266              		.loc 1 34 0 discriminator 3
 267 0018 13F8011F 		ldrb	r1, [r3, #1]!	@ zero_extendqisi2
 268              		.loc 1 33 0 discriminator 3
 269 001c 9D42     		cmp	r5, r3
 270              		.loc 1 34 0 discriminator 3
 271 001e 0A44     		add	r2, r2, r1
 272              	.LVL21:
 273              		.loc 1 33 0 discriminator 3
 274 0020 FAD1     		bne	.L11
 275              	.LBE83:
 276              		.loc 1 36 0
 277 0022 9C4B     		ldr	r3, .L104+4
 278              		.loc 1 37 0
 279 0024 90F88012 		ldrb	r1, [r0, #640]	@ zero_extendqisi2
 280              		.loc 1 36 0
 281 0028 A3FB0223 		umull	r2, r3, r3, r2
 282              	.LVL22:
 283              		.loc 1 37 0
 284 002c A1F15102 		sub	r2, r1, #81
 285 0030 262A     		cmp	r2, #38
ARM GAS  C:\Users\FFDD~1\AppData\Local\Temp\cczkV1vP.s 			page 6


 286              		.loc 1 36 0
 287 0032 4FEA5323 		lsr	r3, r3, #9
 288              	.LVL23:
 289              		.loc 1 38 0
 290 0036 984A     		ldr	r2, .L104+8
 291              		.loc 1 37 0
 292 0038 00F20981 		bhi	.L12
 293              		.loc 1 38 0
 294 003c 0121     		movs	r1, #1
 295 003e 1170     		strb	r1, [r2]
 296              	.L14:
 297              		.loc 1 47 0
 298 0040 0022     		movs	r2, #0
 299 0042 DFF868E2 		ldr	lr, .L104+28
 300              		.loc 1 101 0
 301 0046 DFF85CC2 		ldr	ip, .L104+20
 302              		.loc 1 47 0
 303 004a ADF80220 		strh	r2, [sp, #2]	@ movhi
 304 004e 1546     		mov	r5, r2
 305              		.loc 1 103 0
 306 0050 9046     		mov	r8, r2
 307              		.loc 1 58 0
 308 0052 40F27A21 		movw	r1, #634
 309              		.loc 1 62 0
 310 0056 03F11406 		add	r6, r3, #20
 311              		.loc 1 85 0
 312 005a 0127     		movs	r7, #1
 313              	.LVL24:
 314              	.L15:
 315              		.loc 1 58 0 discriminator 1
 316 005c BDF80220 		ldrh	r2, [sp, #2]
 317 0060 9142     		cmp	r1, r2
 318 0062 41D3     		bcc	.L97
 319              	.L21:
 320              		.loc 1 62 0
 321 0064 BDF80220 		ldrh	r2, [sp, #2]
 322 0068 92B2     		uxth	r2, r2
 323 006a 825C     		ldrb	r2, [r0, r2]	@ zero_extendqisi2
 324 006c B242     		cmp	r2, r6
 325 006e BDF80220 		ldrh	r2, [sp, #2]
 326 0072 40F2D680 		bls	.L89
 327              		.loc 1 62 0 is_stmt 0 discriminator 1
 328 0076 0244     		add	r2, r2, r0
 329 0078 5279     		ldrb	r2, [r2, #5]	@ zero_extendqisi2
 330 007a 9A42     		cmp	r2, r3
 331 007c 80F0CF80 		bcs	.L18
 332              		.loc 1 64 0 is_stmt 1
 333 0080 BDF80250 		ldrh	r5, [sp, #2]
 334              		.loc 1 70 0
 335 0084 BDF80220 		ldrh	r2, [sp, #2]
 336              		.loc 1 67 0
 337 0088 8CF80070 		strb	r7, [ip]
 338              		.loc 1 70 0
 339 008c 0132     		adds	r2, r2, #1
 340 008e 92B2     		uxth	r2, r2
 341 0090 ADF80220 		strh	r2, [sp, #2]	@ movhi
 342              		.loc 1 75 0
ARM GAS  C:\Users\FFDD~1\AppData\Local\Temp\cczkV1vP.s 			page 7


 343 0094 BDF80220 		ldrh	r2, [sp, #2]
 344 0098 9142     		cmp	r1, r2
 345              		.loc 1 64 0
 346 009a ADB2     		uxth	r5, r5
 347              	.LVL25:
 348              		.loc 1 75 0
 349 009c 3AD2     		bcs	.L49
 350              	.LVL26:
 351              		.loc 1 93 0
 352 009e BDF80220 		ldrh	r2, [sp, #2]
 353 00a2 B2F5207F 		cmp	r2, #640
 354 00a6 74D3     		bcc	.L90
 355              		.loc 1 99 0
 356 00a8 BDF80220 		ldrh	r2, [sp, #2]
 357 00ac B2F5207F 		cmp	r2, #640
 358 00b0 80F08F80 		bcs	.L34
 359              	.LVL27:
 360              	.L36:
 361              		.loc 1 103 0
 362 00b4 BDF80220 		ldrh	r2, [sp, #2]
 363 00b8 B2F5207F 		cmp	r2, #640
 364 00bc 00F28F80 		bhi	.L92
 365              	.L44:
 366 00c0 002D     		cmp	r5, #0
 367 00c2 00F08C80 		beq	.L92
 368 00c6 4FF0000A 		mov	r10, #0
 369 00ca 5246     		mov	r2, r10
 370 00cc A946     		mov	r9, r5
 371              	.L43:
 372              		.loc 1 116 0
 373 00ce AAEB090B 		sub	fp, r10, r9
 374 00d2 BBF1270F 		cmp	fp, #39
 375 00d6 52DC     		bgt	.L98
 376              	.L54:
 377              		.loc 1 117 0
 378 00d8 ADF80220 		strh	r2, [sp, #2]	@ movhi
 379              	.LVL28:
 380              		.loc 1 58 0
 381 00dc BDF80220 		ldrh	r2, [sp, #2]
 382 00e0 9142     		cmp	r1, r2
 383 00e2 4FF00105 		mov	r5, #1
 384 00e6 BDD2     		bcs	.L21
 385              	.LVL29:
 386              	.L97:
 387              		.loc 1 73 0
 388 00e8 002D     		cmp	r5, #0
 389 00ea 63D1     		bne	.L22
 390              		.loc 1 74 0
 391 00ec ADF80250 		strh	r5, [sp, #2]	@ movhi
 392              		.loc 1 75 0
 393 00f0 BDF80220 		ldrh	r2, [sp, #2]
 394 00f4 9142     		cmp	r1, r2
 395 00f6 0DD2     		bcs	.L49
 396              	.LVL30:
 397              		.loc 1 93 0
 398 00f8 BDF80220 		ldrh	r2, [sp, #2]
 399 00fc B2F5207F 		cmp	r2, #640
ARM GAS  C:\Users\FFDD~1\AppData\Local\Temp\cczkV1vP.s 			page 8


 400 0100 80F0B980 		bcs	.L83
 401              	.L91:
 402 0104 DFF8A491 		ldr	r9, .L104+28
 403              	.LVL31:
 404              	.L33:
 405              		.loc 1 99 0
 406 0108 BDF80230 		ldrh	r3, [sp, #2]
 407              	.LVL32:
 408              		.loc 1 103 0
 409 010c BDF80230 		ldrh	r3, [sp, #2]
 410 0110 67E0     		b	.L35
 411              	.LVL33:
 412              	.L101:
 413              		.loc 1 75 0
 414 0112 0025     		movs	r5, #0
 415              	.LVL34:
 416              	.L49:
 417              		.loc 1 78 0 discriminator 1
 418 0114 BDF80220 		ldrh	r2, [sp, #2]
 419 0118 9142     		cmp	r1, r2
 420 011a C0F09080 		bcc	.L99
 421              	.L29:
 422              		.loc 1 80 0
 423 011e BDF80220 		ldrh	r2, [sp, #2]
 424 0122 92B2     		uxth	r2, r2
 425 0124 825C     		ldrb	r2, [r0, r2]	@ zero_extendqisi2
 426 0126 9A42     		cmp	r2, r3
 427 0128 BDF80220 		ldrh	r2, [sp, #2]
 428 012c 7ED2     		bcs	.L24
 429              		.loc 1 80 0 is_stmt 0 discriminator 1
 430 012e 0244     		add	r2, r2, r0
 431 0130 5279     		ldrb	r2, [r2, #5]	@ zero_extendqisi2
 432 0132 B242     		cmp	r2, r6
 433              		.loc 1 82 0 is_stmt 1 discriminator 1
 434 0134 BDF80220 		ldrh	r2, [sp, #2]
 435              		.loc 1 80 0 discriminator 1
 436 0138 78D9     		bls	.L24
 437              		.loc 1 87 0
 438 013a BDF80290 		ldrh	r9, [sp, #2]
 439              		.loc 1 85 0
 440 013e 8EF80070 		strb	r7, [lr]
 441              		.loc 1 87 0
 442 0142 09F10109 		add	r9, r9, #1
 443 0146 1FFA89F9 		uxth	r9, r9
 444 014a ADF80290 		strh	r9, [sp, #2]	@ movhi
 445              		.loc 1 93 0
 446 014e BDF802A0 		ldrh	r10, [sp, #2]
 447 0152 BAF5207F 		cmp	r10, #640
 448              		.loc 1 82 0
 449 0156 92B2     		uxth	r2, r2
 450              	.LVL35:
 451              		.loc 1 85 0
 452 0158 F146     		mov	r9, lr
 453              		.loc 1 93 0
 454 015a 7BD2     		bcs	.L100
 455              		.loc 1 93 0 is_stmt 0 discriminator 1
 456 015c D2B1     		cbz	r2, .L37
ARM GAS  C:\Users\FFDD~1\AppData\Local\Temp\cczkV1vP.s 			page 9


 457              		.loc 1 99 0 is_stmt 1
 458 015e BDF802A0 		ldrh	r10, [sp, #2]
 459 0162 BAF5207F 		cmp	r10, #640
 460 0166 1DD2     		bcs	.L39
 461              	.L52:
 462              		.loc 1 99 0 is_stmt 0 discriminator 2
 463 0168 E5B9     		cbnz	r5, .L39
 464              	.LVL36:
 465              		.loc 1 101 0 is_stmt 1
 466 016a 8CF80050 		strb	r5, [ip]
 467 016e 0125     		movs	r5, #1
 468              		.loc 1 100 0
 469 0170 A946     		mov	r9, r5
 470 0172 9246     		mov	r10, r2
 471              	.LVL37:
 472              		.loc 1 116 0
 473 0174 AAEB090B 		sub	fp, r10, r9
 474 0178 BBF1270F 		cmp	fp, #39
 475 017c ACDD     		ble	.L54
 476              	.LVL38:
 477              	.L98:
 478              		.loc 1 134 0
 479 017e 551B     		subs	r5, r2, r5
 480              	.LVL39:
 481              		.loc 1 135 0
 482 0180 09EB0A03 		add	r3, r9, r10
 483              	.LVL40:
 484              		.loc 1 134 0
 485 0184 4549     		ldr	r1, .L104+12
 486              		.loc 1 135 0
 487 0186 464A     		ldr	r2, .L104+16
 488              	.LVL41:
 489              		.loc 1 134 0
 490 0188 A8B2     		uxth	r0, r5
 491              	.LVL42:
 492              		.loc 1 135 0
 493 018a 5B10     		asrs	r3, r3, #1
 494              		.loc 1 134 0
 495 018c 0880     		strh	r0, [r1]	@ movhi
 496              		.loc 1 135 0
 497 018e 1380     		strh	r3, [r2]	@ movhi
 498              	.LVL43:
 499 0190 2EE0     		b	.L41
 500              	.LVL44:
 501              	.L90:
 502 0192 F146     		mov	r9, lr
 503              	.LVL45:
 504              	.L37:
 505              		.loc 1 93 0
 506 0194 002D     		cmp	r5, #0
 507 0196 B7D0     		beq	.L33
 508              	.LVL46:
 509              		.loc 1 99 0
 510 0198 BDF80220 		ldrh	r2, [sp, #2]
 511              		.loc 1 97 0
 512 019c 8EF80080 		strb	r8, [lr]
 513              		.loc 1 94 0
ARM GAS  C:\Users\FFDD~1\AppData\Local\Temp\cczkV1vP.s 			page 10


 514 01a0 4FF42072 		mov	r2, #640
 515              	.LVL47:
 516              	.L39:
 517              		.loc 1 103 0
 518 01a4 BDF802A0 		ldrh	r10, [sp, #2]
 519 01a8 BAF5207F 		cmp	r10, #640
 520 01ac 19D8     		bhi	.L35
 521              	.L94:
 522 01ae 9246     		mov	r10, r2
 523 01b0 A946     		mov	r9, r5
 524 01b2 8CE7     		b	.L43
 525              	.LVL48:
 526              	.L22:
 527              		.loc 1 75 0
 528 01b4 BDF80220 		ldrh	r2, [sp, #2]
 529 01b8 9142     		cmp	r1, r2
 530 01ba AAD2     		bcs	.L101
 531              	.LVL49:
 532              		.loc 1 93 0
 533 01bc BDF80220 		ldrh	r2, [sp, #2]
 534 01c0 B2F5207F 		cmp	r2, #640
 535 01c4 9ED3     		bcc	.L91
 536              		.loc 1 99 0
 537 01c6 BDF80220 		ldrh	r2, [sp, #2]
 538 01ca B2F5207F 		cmp	r2, #640
 539 01ce 57D3     		bcc	.L93
 540 01d0 0025     		movs	r5, #0
 541              	.LVL50:
 542              	.L34:
 543              		.loc 1 103 0
 544 01d2 BDF80220 		ldrh	r2, [sp, #2]
 545 01d6 B2F5207F 		cmp	r2, #640
 546 01da 7FF671AF 		bls	.L44
 547              	.LVL51:
 548              	.L92:
 549 01de DFF8CC90 		ldr	r9, .L104+28
 550              	.LVL52:
 551              	.L35:
 552              		.loc 1 129 0
 553 01e2 2E4A     		ldr	r2, .L104+12
 554              		.loc 1 106 0
 555 01e4 2F49     		ldr	r1, .L104+20
 556              		.loc 1 129 0
 557 01e6 1088     		ldrh	r0, [r2]
 558              	.LVL53:
 559              		.loc 1 106 0
 560 01e8 0023     		movs	r3, #0
 561 01ea 0B70     		strb	r3, [r1]
 562              		.loc 1 107 0
 563 01ec 89F80030 		strb	r3, [r9]
 564              	.LVL54:
 565              	.L41:
 566              		.loc 1 139 0
 567 01f0 07EE900A 		vmov	s15, r0	@ int
 568 01f4 DFED2C6A 		vldr.32	s13, .L104+24
 569              		.loc 1 144 0
 570 01f8 019A     		ldr	r2, [sp, #4]
ARM GAS  C:\Users\FFDD~1\AppData\Local\Temp\cczkV1vP.s 			page 11


 571 01fa 2368     		ldr	r3, [r4]
 572              		.loc 1 139 0
 573 01fc F8EEE77A 		vcvt.f32.s32	s15, s15
 574 0200 86EEA77A 		vdiv.f32	s14, s13, s15
 575 0204 F3EE097A 		vmov.f32	s15, #2.5e+1
 576              		.loc 1 140 0
 577 0208 B4EE677A 		vcmp.f32	s14, s15
 578 020c F1EE10FA 		vmrs	APSR_nzcv, FPSCR
 579              		.loc 1 144 0
 580 0210 C8BF     		it	gt
 581 0212 3E20     		movgt	r0, #62
 582              	.LVL55:
 583 0214 9A42     		cmp	r2, r3
 584 0216 38D1     		bne	.L102
 585 0218 03B0     		add	sp, sp, #12
 586              		.cfi_remember_state
 587              		.cfi_def_cfa_offset 36
 588              		@ sp needed
 589 021a BDE8F08F 		pop	{r4, r5, r6, r7, r8, r9, r10, fp, pc}
 590              	.LVL56:
 591              	.L18:
 592              		.cfi_restore_state
 593              		.loc 1 70 0
 594 021e BDF80220 		ldrh	r2, [sp, #2]
 595              	.L89:
 596 0222 0132     		adds	r2, r2, #1
 597 0224 92B2     		uxth	r2, r2
 598 0226 ADF80220 		strh	r2, [sp, #2]	@ movhi
 599 022a 17E7     		b	.L15
 600              	.LVL57:
 601              	.L24:
 602              		.loc 1 87 0
 603 022c 0132     		adds	r2, r2, #1
 604 022e 92B2     		uxth	r2, r2
 605 0230 ADF80220 		strh	r2, [sp, #2]	@ movhi
 606              		.loc 1 78 0
 607 0234 BDF80220 		ldrh	r2, [sp, #2]
 608 0238 9142     		cmp	r1, r2
 609 023a BFF470AF 		bcs	.L29
 610              	.LVL58:
 611              	.L99:
 612              		.loc 1 93 0
 613 023e BDF80220 		ldrh	r2, [sp, #2]
 614 0242 B2F5207F 		cmp	r2, #640
 615 0246 A4D3     		bcc	.L90
 616              	.LVL59:
 617              		.loc 1 99 0
 618 0248 BDF80220 		ldrh	r2, [sp, #2]
 619 024c 32E7     		b	.L36
 620              	.LVL60:
 621              	.L12:
 622              		.loc 1 41 0
 623 024e 0021     		movs	r1, #0
 624 0250 1170     		strb	r1, [r2]
 625 0252 F5E6     		b	.L14
 626              	.LVL61:
 627              	.L100:
ARM GAS  C:\Users\FFDD~1\AppData\Local\Temp\cczkV1vP.s 			page 12


 628              		.loc 1 99 0
 629 0254 BDF802A0 		ldrh	r10, [sp, #2]
 630 0258 BAF5207F 		cmp	r10, #640
 631 025c 07D3     		bcc	.L103
 632              		.loc 1 103 0
 633 025e BDF802A0 		ldrh	r10, [sp, #2]
 634 0262 BAF5207F 		cmp	r10, #640
 635 0266 BCD8     		bhi	.L35
 636              		.loc 1 103 0 is_stmt 0 discriminator 1
 637 0268 002A     		cmp	r2, #0
 638 026a A0D1     		bne	.L94
 639 026c 28E7     		b	.L44
 640              	.L103:
 641              		.loc 1 99 0 is_stmt 1 discriminator 1
 642 026e 002A     		cmp	r2, #0
 643 0270 7FF47AAF 		bne	.L52
 644 0274 1EE7     		b	.L36
 645              	.LVL62:
 646              	.L83:
 647              		.loc 1 99 0 is_stmt 0
 648 0276 BDF80220 		ldrh	r2, [sp, #2]
 649 027a B2F5207F 		cmp	r2, #640
 650 027e A8D2     		bcs	.L34
 651              	.L93:
 652              		.loc 1 103 0 is_stmt 1
 653 0280 BDF80230 		ldrh	r3, [sp, #2]
 654              	.LVL63:
 655 0284 DFF82490 		ldr	r9, .L104+28
 656 0288 ABE7     		b	.L35
 657              	.LVL64:
 658              	.L102:
 659              		.loc 1 144 0
 660 028a FFF7FEFF 		bl	__stack_chk_fail
 661              	.LVL65:
 662              	.L105:
 663 028e 00BF     		.align	2
 664              	.L104:
 665 0290 00000000 		.word	__stack_chk_guard
 666 0294 CDCCCCCC 		.word	-858993459
 667 0298 00000000 		.word	.LANCHOR3
 668 029c 00000000 		.word	.LANCHOR6
 669 02a0 00000000 		.word	.LANCHOR7
 670 02a4 00000000 		.word	.LANCHOR4
 671 02a8 0040C444 		.word	1153712128
 672 02ac 00000000 		.word	.LANCHOR5
 673              		.cfi_endproc
 674              	.LFE257:
 675              		.size	extract_line_width, .-extract_line_width
 676              		.section	.text.ProcessImage,"ax",%progbits
 677              		.align	1
 678              		.p2align 4,,15
 679              		.syntax unified
 680              		.thumb
 681              		.thumb_func
 682              		.fpu fpv4-sp-d16
 683              		.type	ProcessImage, %function
 684              	ProcessImage:
ARM GAS  C:\Users\FFDD~1\AppData\Local\Temp\cczkV1vP.s 			page 13


 685              	.LFB259:
 686              		.loc 1 173 0
 687              		.cfi_startproc
 688              		@ args = 0, pretend = 0, frame = 648
 689              		@ frame_needed = 0, uses_anonymous_args = 0
 690              	.LVL66:
 691 0000 2DE9F04F 		push	{r4, r5, r6, r7, r8, r9, r10, fp, lr}
 692              		.cfi_def_cfa_offset 36
 693              		.cfi_offset 4, -36
 694              		.cfi_offset 5, -32
 695              		.cfi_offset 6, -28
 696              		.cfi_offset 7, -24
 697              		.cfi_offset 8, -20
 698              		.cfi_offset 9, -16
 699              		.cfi_offset 10, -12
 700              		.cfi_offset 11, -8
 701              		.cfi_offset 14, -4
 702 0004 2DED028B 		vpush.64	{d8}
 703              		.cfi_def_cfa_offset 44
 704              		.cfi_offset 80, -44
 705              		.cfi_offset 81, -40
 706              	.LBB84:
 707              	.LBB85:
 708              		.loc 2 135 0
 709 0008 3C4A     		ldr	r2, .L130
 710              	.LBE85:
 711              	.LBE84:
 712              		.loc 1 173 0
 713 000a 3D4B     		ldr	r3, .L130+4
 714              	.LBB87:
 715              	.LBB86:
 716              		.loc 2 135 0
 717 000c 9269     		ldr	r2, [r2, #24]
 718 000e 3D49     		ldr	r1, .L130+8
 719 0010 9161     		str	r1, [r2, #24]
 720              	.LBE86:
 721              	.LBE87:
 722              		.loc 1 173 0
 723 0012 ADF5237D 		sub	sp, sp, #652
 724              		.cfi_def_cfa_offset 696
 725              		.loc 1 179 0
 726 0016 01AC     		add	r4, sp, #4
 727              		.loc 1 173 0
 728 0018 1B68     		ldr	r3, [r3]
 729 001a A193     		str	r3, [sp, #644]
 730              		.loc 1 179 0
 731 001c 2046     		mov	r0, r4
 732              	.LVL67:
 733 001e 4FF42072 		mov	r2, #640
 734 0022 0021     		movs	r1, #0
 735 0024 FFF7FEFF 		bl	memset
 736              	.LVL68:
 737 0028 DFF8E880 		ldr	r8, .L130+24
 738 002c 364F     		ldr	r7, .L130+12
 739 002e DFF8E890 		ldr	r9, .L130+28
 740              	.LBB88:
 741              	.LBB89:
ARM GAS  C:\Users\FFDD~1\AppData\Local\Temp\cczkV1vP.s 			page 14


 742              		.loc 4 143 0
 743 0032 364E     		ldr	r6, .L130+16
 744              	.LBE89:
 745              	.LBE88:
 746              		.loc 1 245 0
 747 0034 9FED368A 		vldr.32	s16, .L130+20
 748              		.loc 1 182 0
 749 0038 0125     		movs	r5, #1
 750              	.LVL69:
 751              	.L114:
 752              	.LBB91:
 753              	.LBB90:
 754              		.loc 4 143 0
 755 003a 3046     		mov	r0, r6
 756 003c FFF7FEFF 		bl	chSemWait
 757              	.LVL70:
 758              	.LBE90:
 759              	.LBE91:
 760              		.loc 1 188 0
 761 0040 FFF7FEFF 		bl	dcmi_get_last_image_ptr
 762              	.LVL71:
 763              		.loc 1 191 0
 764 0044 D8F80030 		ldr	r3, [r8]
 765 0048 012B     		cmp	r3, #1
 766              		.loc 1 188 0
 767 004a 8346     		mov	fp, r0
 768              	.LVL72:
 769              		.loc 1 191 0
 770 004c 41D0     		beq	.L117
 771 004e 022B     		cmp	r3, #2
 772 0050 23D0     		beq	.L118
 773 0052 83B1     		cbz	r3, .L110
 774              	.LVL73:
 775              	.L107:
 776              		.loc 1 241 0
 777 0054 2046     		mov	r0, r4
 778 0056 FFF7FEFF 		bl	extract_line_width
 779              	.LVL74:
 780 005a 3880     		strh	r0, [r7]	@ movhi
 781              		.loc 1 244 0
 782 005c 38B1     		cbz	r0, .L112
 783              		.loc 1 245 0
 784 005e 07EE900A 		vmov	s15, r0	@ int
 785 0062 F8EEE77A 		vcvt.f32.s32	s15, s15
 786 0066 88EE277A 		vdiv.f32	s14, s16, s15
 787 006a 89ED007A 		vstr.32	s14, [r9]
 788              	.L112:
 789              		.loc 1 248 0
 790 006e 75B9     		cbnz	r5, .L129
 791              	.L113:
 792              		.loc 1 253 0
 793 0070 85F00105 		eor	r5, r5, #1
 794              	.LVL75:
 795              		.loc 1 186 0
 796 0074 E1E7     		b	.L114
 797              	.LVL76:
 798              	.L110:
ARM GAS  C:\Users\FFDD~1\AppData\Local\Temp\cczkV1vP.s 			page 15


 799              	.LBB92:
 800              		.loc 1 195 0 discriminator 3
 801 0076 1BF80320 		ldrb	r2, [fp, r3]	@ zero_extendqisi2
 802 007a C3F34E01 		ubfx	r1, r3, #1, #15
 803 007e 0233     		adds	r3, r3, #2
 804              	.LVL77:
 805 0080 22F00702 		bic	r2, r2, #7
 806              		.loc 1 193 0 discriminator 3
 807 0084 B3F5A06F 		cmp	r3, #1280
 808              		.loc 1 195 0 discriminator 3
 809 0088 6254     		strb	r2, [r4, r1]
 810              		.loc 1 193 0 discriminator 3
 811 008a F4D1     		bne	.L110
 812 008c E2E7     		b	.L107
 813              	.LVL78:
 814              	.L129:
 815              	.LBE92:
 816              		.loc 1 250 0
 817 008e 4FF42071 		mov	r1, #640
 818 0092 2046     		mov	r0, r4
 819 0094 FFF7FEFF 		bl	SendUint8ToComputer
 820              	.LVL79:
 821 0098 EAE7     		b	.L113
 822              	.LVL80:
 823              	.L118:
 824              		.loc 1 191 0
 825 009a 4FF0000A 		mov	r10, #0
 826              	.LVL81:
 827              	.L109:
 828              	.LBB93:
 829              		.loc 1 216 0 discriminator 3
 830 009e 1BF80A30 		ldrb	r3, [fp, r10]	@ zero_extendqisi2
 831 00a2 0BEB0A02 		add	r2, fp, r10
 832 00a6 DB00     		lsls	r3, r3, #3
 833 00a8 5278     		ldrb	r2, [r2, #1]	@ zero_extendqisi2
 834 00aa 03F03803 		and	r3, r3, #56
 835 00ae 03EB5213 		add	r3, r3, r2, lsr #5
 836 00b2 CAF34E02 		ubfx	r2, r10, #1, #15
 837 00b6 9B00     		lsls	r3, r3, #2
 838              		.loc 1 218 0 discriminator 3
 839 00b8 0120     		movs	r0, #1
 840              		.loc 1 216 0 discriminator 3
 841 00ba A354     		strb	r3, [r4, r2]
 842 00bc 0AF1020A 		add	r10, r10, #2
 843              	.LVL82:
 844              		.loc 1 218 0 discriminator 3
 845 00c0 FFF7FEFF 		bl	set_body_led
 846              	.LVL83:
 847              		.loc 1 219 0 discriminator 3
 848 00c4 0020     		movs	r0, #0
 849 00c6 FFF7FEFF 		bl	set_front_led
 850              	.LVL84:
 851              		.loc 1 213 0 discriminator 3
 852 00ca BAF5A06F 		cmp	r10, #1280
 853 00ce E6D1     		bne	.L109
 854 00d0 C0E7     		b	.L107
 855              	.LVL85:
ARM GAS  C:\Users\FFDD~1\AppData\Local\Temp\cczkV1vP.s 			page 16


 856              	.L117:
 857              	.LBE93:
 858              		.loc 1 191 0
 859 00d2 4FF0000A 		mov	r10, #0
 860              	.LVL86:
 861              	.L108:
 862              	.LBB94:
 863              		.loc 1 205 0 discriminator 3
 864 00d6 1BF80A30 		ldrb	r3, [fp, r10]	@ zero_extendqisi2
 865 00da CAF34E02 		ubfx	r2, r10, #1, #15
 866 00de 23F00703 		bic	r3, r3, #7
 867              		.loc 1 207 0 discriminator 3
 868 00e2 0120     		movs	r0, #1
 869              		.loc 1 205 0 discriminator 3
 870 00e4 A354     		strb	r3, [r4, r2]
 871 00e6 0AF1020A 		add	r10, r10, #2
 872              	.LVL87:
 873              		.loc 1 207 0 discriminator 3
 874 00ea FFF7FEFF 		bl	set_front_led
 875              	.LVL88:
 876              		.loc 1 208 0 discriminator 3
 877 00ee 0020     		movs	r0, #0
 878 00f0 FFF7FEFF 		bl	set_body_led
 879              	.LVL89:
 880              		.loc 1 202 0 discriminator 3
 881 00f4 BAF5A06F 		cmp	r10, #1280
 882 00f8 EDD1     		bne	.L108
 883 00fa ABE7     		b	.L107
 884              	.L131:
 885              		.align	2
 886              	.L130:
 887 00fc 00000000 		.word	ch
 888 0100 00000000 		.word	__stack_chk_guard
 889 0104 00000000 		.word	.LANCHOR8
 890 0108 00000000 		.word	.LANCHOR10
 891 010c 00000000 		.word	.LANCHOR1
 892 0110 0040C444 		.word	1153712128
 893 0114 00000000 		.word	.LANCHOR9
 894 0118 00000000 		.word	.LANCHOR11
 895              	.LBE94:
 896              		.cfi_endproc
 897              	.LFE259:
 898              		.size	ProcessImage, .-ProcessImage
 899              		.section	.text.get_distance_cm,"ax",%progbits
 900              		.align	1
 901              		.p2align 4,,15
 902              		.global	get_distance_cm
 903              		.syntax unified
 904              		.thumb
 905              		.thumb_func
 906              		.fpu fpv4-sp-d16
 907              		.type	get_distance_cm, %function
 908              	get_distance_cm:
 909              	.LFB260:
 910              		.loc 1 257 0
 911              		.cfi_startproc
 912              		@ args = 0, pretend = 0, frame = 8
ARM GAS  C:\Users\FFDD~1\AppData\Local\Temp\cczkV1vP.s 			page 17


 913              		@ frame_needed = 0, uses_anonymous_args = 0
 914 0000 00B5     		push	{lr}
 915              		.cfi_def_cfa_offset 4
 916              		.cfi_offset 14, -4
 917 0002 084B     		ldr	r3, .L136
 918              		.loc 1 258 0
 919 0004 0849     		ldr	r1, .L136+4
 920              		.loc 1 257 0
 921 0006 1A68     		ldr	r2, [r3]
 922              		.loc 1 259 0
 923 0008 91ED000A 		vldr.32	s0, [r1]
 924              		.loc 1 257 0
 925 000c 83B0     		sub	sp, sp, #12
 926              		.cfi_def_cfa_offset 16
 927              		.loc 1 257 0
 928 000e 0192     		str	r2, [sp, #4]
 929              		.loc 1 259 0
 930 0010 019A     		ldr	r2, [sp, #4]
 931 0012 1B68     		ldr	r3, [r3]
 932 0014 9A42     		cmp	r2, r3
 933 0016 02D1     		bne	.L135
 934 0018 03B0     		add	sp, sp, #12
 935              		.cfi_remember_state
 936              		.cfi_def_cfa_offset 4
 937              		@ sp needed
 938 001a 5DF804FB 		ldr	pc, [sp], #4
 939              	.L135:
 940              		.cfi_restore_state
 941 001e FFF7FEFF 		bl	__stack_chk_fail
 942              	.LVL90:
 943              	.L137:
 944 0022 00BF     		.align	2
 945              	.L136:
 946 0024 00000000 		.word	__stack_chk_guard
 947 0028 00000000 		.word	.LANCHOR11
 948              		.cfi_endproc
 949              	.LFE260:
 950              		.size	get_distance_cm, .-get_distance_cm
 951              		.section	.text.get_line_position,"ax",%progbits
 952              		.align	1
 953              		.p2align 4,,15
 954              		.global	get_line_position
 955              		.syntax unified
 956              		.thumb
 957              		.thumb_func
 958              		.fpu fpv4-sp-d16
 959              		.type	get_line_position, %function
 960              	get_line_position:
 961              	.LFB261:
 962              		.loc 1 261 0
 963              		.cfi_startproc
 964              		@ args = 0, pretend = 0, frame = 8
 965              		@ frame_needed = 0, uses_anonymous_args = 0
 966 0000 00B5     		push	{lr}
 967              		.cfi_def_cfa_offset 4
 968              		.cfi_offset 14, -4
 969 0002 074B     		ldr	r3, .L142
ARM GAS  C:\Users\FFDD~1\AppData\Local\Temp\cczkV1vP.s 			page 18


 970              		.loc 1 262 0
 971 0004 0749     		ldr	r1, .L142+4
 972              		.loc 1 261 0
 973 0006 1A68     		ldr	r2, [r3]
 974              		.loc 1 263 0
 975 0008 0888     		ldrh	r0, [r1]
 976              		.loc 1 261 0
 977 000a 83B0     		sub	sp, sp, #12
 978              		.cfi_def_cfa_offset 16
 979              		.loc 1 261 0
 980 000c 0192     		str	r2, [sp, #4]
 981              		.loc 1 263 0
 982 000e 019A     		ldr	r2, [sp, #4]
 983 0010 1B68     		ldr	r3, [r3]
 984 0012 9A42     		cmp	r2, r3
 985 0014 02D1     		bne	.L141
 986 0016 03B0     		add	sp, sp, #12
 987              		.cfi_remember_state
 988              		.cfi_def_cfa_offset 4
 989              		@ sp needed
 990 0018 5DF804FB 		ldr	pc, [sp], #4
 991              	.L141:
 992              		.cfi_restore_state
 993 001c FFF7FEFF 		bl	__stack_chk_fail
 994              	.LVL91:
 995              	.L143:
 996              		.align	2
 997              	.L142:
 998 0020 00000000 		.word	__stack_chk_guard
 999 0024 00000000 		.word	.LANCHOR7
 1000              		.cfi_endproc
 1001              	.LFE261:
 1002              		.size	get_line_position, .-get_line_position
 1003              		.section	.text.process_image_start,"ax",%progbits
 1004              		.align	1
 1005              		.p2align 4,,15
 1006              		.global	process_image_start
 1007              		.syntax unified
 1008              		.thumb
 1009              		.thumb_func
 1010              		.fpu fpv4-sp-d16
 1011              		.type	process_image_start, %function
 1012              	process_image_start:
 1013              	.LFB262:
 1014              		.loc 1 265 0
 1015              		.cfi_startproc
 1016              		@ args = 0, pretend = 0, frame = 8
 1017              		@ frame_needed = 0, uses_anonymous_args = 0
 1018 0000 30B5     		push	{r4, r5, lr}
 1019              		.cfi_def_cfa_offset 12
 1020              		.cfi_offset 4, -12
 1021              		.cfi_offset 5, -8
 1022              		.cfi_offset 14, -4
 1023 0002 0E4C     		ldr	r4, .L148
 1024              		.loc 1 266 0
 1025 0004 0E4B     		ldr	r3, .L148+4
 1026              		.loc 1 265 0
ARM GAS  C:\Users\FFDD~1\AppData\Local\Temp\cczkV1vP.s 			page 19


 1027 0006 2268     		ldr	r2, [r4]
 1028              		.loc 1 266 0
 1029 0008 0E48     		ldr	r0, .L148+8
 1030              		.loc 1 265 0
 1031 000a 85B0     		sub	sp, sp, #20
 1032              		.cfi_def_cfa_offset 32
 1033              		.loc 1 266 0
 1034 000c 0025     		movs	r5, #0
 1035              		.loc 1 265 0
 1036 000e 0392     		str	r2, [sp, #12]
 1037              		.loc 1 266 0
 1038 0010 4FF4AF61 		mov	r1, #1400
 1039 0014 4022     		movs	r2, #64
 1040 0016 0095     		str	r5, [sp]
 1041 0018 FFF7FEFF 		bl	chThdCreateStatic
 1042              	.LVL92:
 1043              		.loc 1 267 0
 1044 001c 0A4B     		ldr	r3, .L148+12
 1045 001e 0095     		str	r5, [sp]
 1046 0020 4022     		movs	r2, #64
 1047 0022 0A48     		ldr	r0, .L148+16
 1048 0024 4FF41E71 		mov	r1, #632
 1049 0028 FFF7FEFF 		bl	chThdCreateStatic
 1050              	.LVL93:
 1051              		.loc 1 268 0
 1052 002c 039A     		ldr	r2, [sp, #12]
 1053 002e 2368     		ldr	r3, [r4]
 1054 0030 9A42     		cmp	r2, r3
 1055 0032 01D1     		bne	.L147
 1056 0034 05B0     		add	sp, sp, #20
 1057              		.cfi_remember_state
 1058              		.cfi_def_cfa_offset 12
 1059              		@ sp needed
 1060 0036 30BD     		pop	{r4, r5, pc}
 1061              	.L147:
 1062              		.cfi_restore_state
 1063 0038 FFF7FEFF 		bl	__stack_chk_fail
 1064              	.LVL94:
 1065              	.L149:
 1066              		.align	2
 1067              	.L148:
 1068 003c 00000000 		.word	__stack_chk_guard
 1069 0040 00000000 		.word	ProcessImage
 1070 0044 00000000 		.word	.LANCHOR12
 1071 0048 00000000 		.word	CaptureImage
 1072 004c 00000000 		.word	.LANCHOR13
 1073              		.cfi_endproc
 1074              	.LFE262:
 1075              		.size	process_image_start, .-process_image_start
 1076              		.section	.text.colour_status,"ax",%progbits
 1077              		.align	1
 1078              		.p2align 4,,15
 1079              		.global	colour_status
 1080              		.syntax unified
 1081              		.thumb
 1082              		.thumb_func
 1083              		.fpu fpv4-sp-d16
ARM GAS  C:\Users\FFDD~1\AppData\Local\Temp\cczkV1vP.s 			page 20


 1084              		.type	colour_status, %function
 1085              	colour_status:
 1086              	.LFB263:
 1087              		.loc 1 269 0
 1088              		.cfi_startproc
 1089              		@ args = 0, pretend = 0, frame = 8
 1090              		@ frame_needed = 0, uses_anonymous_args = 0
 1091              	.LVL95:
 1092 0000 00B5     		push	{lr}
 1093              		.cfi_def_cfa_offset 4
 1094              		.cfi_offset 14, -4
 1095 0002 074B     		ldr	r3, .L154
 1096              		.loc 1 270 0
 1097 0004 0749     		ldr	r1, .L154+4
 1098              		.loc 1 269 0
 1099 0006 1A68     		ldr	r2, [r3]
 1100              		.loc 1 270 0
 1101 0008 0870     		strb	r0, [r1]
 1102              		.loc 1 269 0
 1103 000a 83B0     		sub	sp, sp, #12
 1104              		.cfi_def_cfa_offset 16
 1105              		.loc 1 269 0
 1106 000c 0192     		str	r2, [sp, #4]
 1107              		.loc 1 271 0
 1108 000e 019A     		ldr	r2, [sp, #4]
 1109 0010 1B68     		ldr	r3, [r3]
 1110 0012 9A42     		cmp	r2, r3
 1111 0014 02D1     		bne	.L153
 1112 0016 03B0     		add	sp, sp, #12
 1113              		.cfi_remember_state
 1114              		.cfi_def_cfa_offset 4
 1115              		@ sp needed
 1116 0018 5DF804FB 		ldr	pc, [sp], #4
 1117              	.L153:
 1118              		.cfi_restore_state
 1119 001c FFF7FEFF 		bl	__stack_chk_fail
 1120              	.LVL96:
 1121              	.L155:
 1122              		.align	2
 1123              	.L154:
 1124 0020 00000000 		.word	__stack_chk_guard
 1125 0024 00000000 		.word	.LANCHOR3
 1126              		.cfi_endproc
 1127              	.LFE263:
 1128              		.size	colour_status, .-colour_status
 1129              		.section	.text.get_falling_edge,"ax",%progbits
 1130              		.align	1
 1131              		.p2align 4,,15
 1132              		.global	get_falling_edge
 1133              		.syntax unified
 1134              		.thumb
 1135              		.thumb_func
 1136              		.fpu fpv4-sp-d16
 1137              		.type	get_falling_edge, %function
 1138              	get_falling_edge:
 1139              	.LFB264:
 1140              		.loc 1 272 0
ARM GAS  C:\Users\FFDD~1\AppData\Local\Temp\cczkV1vP.s 			page 21


 1141              		.cfi_startproc
 1142              		@ args = 0, pretend = 0, frame = 8
 1143              		@ frame_needed = 0, uses_anonymous_args = 0
 1144 0000 00B5     		push	{lr}
 1145              		.cfi_def_cfa_offset 4
 1146              		.cfi_offset 14, -4
 1147 0002 074B     		ldr	r3, .L160
 1148              		.loc 1 273 0
 1149 0004 0749     		ldr	r1, .L160+4
 1150              		.loc 1 272 0
 1151 0006 1A68     		ldr	r2, [r3]
 1152              		.loc 1 274 0
 1153 0008 0878     		ldrb	r0, [r1]	@ zero_extendqisi2
 1154              		.loc 1 272 0
 1155 000a 83B0     		sub	sp, sp, #12
 1156              		.cfi_def_cfa_offset 16
 1157              		.loc 1 272 0
 1158 000c 0192     		str	r2, [sp, #4]
 1159              		.loc 1 274 0
 1160 000e 019A     		ldr	r2, [sp, #4]
 1161 0010 1B68     		ldr	r3, [r3]
 1162 0012 9A42     		cmp	r2, r3
 1163 0014 02D1     		bne	.L159
 1164 0016 03B0     		add	sp, sp, #12
 1165              		.cfi_remember_state
 1166              		.cfi_def_cfa_offset 4
 1167              		@ sp needed
 1168 0018 5DF804FB 		ldr	pc, [sp], #4
 1169              	.L159:
 1170              		.cfi_restore_state
 1171 001c FFF7FEFF 		bl	__stack_chk_fail
 1172              	.LVL97:
 1173              	.L161:
 1174              		.align	2
 1175              	.L160:
 1176 0020 00000000 		.word	__stack_chk_guard
 1177 0024 00000000 		.word	.LANCHOR4
 1178              		.cfi_endproc
 1179              	.LFE264:
 1180              		.size	get_falling_edge, .-get_falling_edge
 1181              		.section	.text.get_rising_edge,"ax",%progbits
 1182              		.align	1
 1183              		.p2align 4,,15
 1184              		.global	get_rising_edge
 1185              		.syntax unified
 1186              		.thumb
 1187              		.thumb_func
 1188              		.fpu fpv4-sp-d16
 1189              		.type	get_rising_edge, %function
 1190              	get_rising_edge:
 1191              	.LFB265:
 1192              		.loc 1 275 0
 1193              		.cfi_startproc
 1194              		@ args = 0, pretend = 0, frame = 8
 1195              		@ frame_needed = 0, uses_anonymous_args = 0
 1196 0000 00B5     		push	{lr}
 1197              		.cfi_def_cfa_offset 4
ARM GAS  C:\Users\FFDD~1\AppData\Local\Temp\cczkV1vP.s 			page 22


 1198              		.cfi_offset 14, -4
 1199 0002 074B     		ldr	r3, .L166
 1200              		.loc 1 276 0
 1201 0004 0749     		ldr	r1, .L166+4
 1202              		.loc 1 275 0
 1203 0006 1A68     		ldr	r2, [r3]
 1204              		.loc 1 277 0
 1205 0008 0878     		ldrb	r0, [r1]	@ zero_extendqisi2
 1206              		.loc 1 275 0
 1207 000a 83B0     		sub	sp, sp, #12
 1208              		.cfi_def_cfa_offset 16
 1209              		.loc 1 275 0
 1210 000c 0192     		str	r2, [sp, #4]
 1211              		.loc 1 277 0
 1212 000e 019A     		ldr	r2, [sp, #4]
 1213 0010 1B68     		ldr	r3, [r3]
 1214 0012 9A42     		cmp	r2, r3
 1215 0014 02D1     		bne	.L165
 1216 0016 03B0     		add	sp, sp, #12
 1217              		.cfi_remember_state
 1218              		.cfi_def_cfa_offset 4
 1219              		@ sp needed
 1220 0018 5DF804FB 		ldr	pc, [sp], #4
 1221              	.L165:
 1222              		.cfi_restore_state
 1223 001c FFF7FEFF 		bl	__stack_chk_fail
 1224              	.LVL98:
 1225              	.L167:
 1226              		.align	2
 1227              	.L166:
 1228 0020 00000000 		.word	__stack_chk_guard
 1229 0024 00000000 		.word	.LANCHOR5
 1230              		.cfi_endproc
 1231              	.LFE265:
 1232              		.size	get_rising_edge, .-get_rising_edge
 1233              		.section	.text.get_colour_status,"ax",%progbits
 1234              		.align	1
 1235              		.p2align 4,,15
 1236              		.global	get_colour_status
 1237              		.syntax unified
 1238              		.thumb
 1239              		.thumb_func
 1240              		.fpu fpv4-sp-d16
 1241              		.type	get_colour_status, %function
 1242              	get_colour_status:
 1243              	.LFB266:
 1244              		.loc 1 278 0
 1245              		.cfi_startproc
 1246              		@ args = 0, pretend = 0, frame = 8
 1247              		@ frame_needed = 0, uses_anonymous_args = 0
 1248 0000 00B5     		push	{lr}
 1249              		.cfi_def_cfa_offset 4
 1250              		.cfi_offset 14, -4
 1251 0002 074B     		ldr	r3, .L172
 1252              		.loc 1 279 0
 1253 0004 0749     		ldr	r1, .L172+4
 1254              		.loc 1 278 0
ARM GAS  C:\Users\FFDD~1\AppData\Local\Temp\cczkV1vP.s 			page 23


 1255 0006 1A68     		ldr	r2, [r3]
 1256              		.loc 1 280 0
 1257 0008 0878     		ldrb	r0, [r1]	@ zero_extendqisi2
 1258              		.loc 1 278 0
 1259 000a 83B0     		sub	sp, sp, #12
 1260              		.cfi_def_cfa_offset 16
 1261              		.loc 1 278 0
 1262 000c 0192     		str	r2, [sp, #4]
 1263              		.loc 1 280 0
 1264 000e 019A     		ldr	r2, [sp, #4]
 1265 0010 1B68     		ldr	r3, [r3]
 1266 0012 9A42     		cmp	r2, r3
 1267 0014 02D1     		bne	.L171
 1268 0016 03B0     		add	sp, sp, #12
 1269              		.cfi_remember_state
 1270              		.cfi_def_cfa_offset 4
 1271              		@ sp needed
 1272 0018 5DF804FB 		ldr	pc, [sp], #4
 1273              	.L171:
 1274              		.cfi_restore_state
 1275 001c FFF7FEFF 		bl	__stack_chk_fail
 1276              	.LVL99:
 1277              	.L173:
 1278              		.align	2
 1279              	.L172:
 1280 0020 00000000 		.word	__stack_chk_guard
 1281 0024 00000000 		.word	.LANCHOR3
 1282              		.cfi_endproc
 1283              	.LFE266:
 1284              		.size	get_colour_status, .-get_colour_status
 1285              		.section	.text.get_line_width,"ax",%progbits
 1286              		.align	1
 1287              		.p2align 4,,15
 1288              		.global	get_line_width
 1289              		.syntax unified
 1290              		.thumb
 1291              		.thumb_func
 1292              		.fpu fpv4-sp-d16
 1293              		.type	get_line_width, %function
 1294              	get_line_width:
 1295              	.LFB267:
 1296              		.loc 1 281 0
 1297              		.cfi_startproc
 1298              		@ args = 0, pretend = 0, frame = 8
 1299              		@ frame_needed = 0, uses_anonymous_args = 0
 1300 0000 00B5     		push	{lr}
 1301              		.cfi_def_cfa_offset 4
 1302              		.cfi_offset 14, -4
 1303 0002 074B     		ldr	r3, .L178
 1304              		.loc 1 282 0
 1305 0004 0749     		ldr	r1, .L178+4
 1306              		.loc 1 281 0
 1307 0006 1A68     		ldr	r2, [r3]
 1308              		.loc 1 283 0
 1309 0008 0888     		ldrh	r0, [r1]
 1310              		.loc 1 281 0
 1311 000a 83B0     		sub	sp, sp, #12
ARM GAS  C:\Users\FFDD~1\AppData\Local\Temp\cczkV1vP.s 			page 24


 1312              		.cfi_def_cfa_offset 16
 1313              		.loc 1 281 0
 1314 000c 0192     		str	r2, [sp, #4]
 1315              		.loc 1 283 0
 1316 000e 019A     		ldr	r2, [sp, #4]
 1317 0010 1B68     		ldr	r3, [r3]
 1318 0012 9A42     		cmp	r2, r3
 1319 0014 02D1     		bne	.L177
 1320 0016 03B0     		add	sp, sp, #12
 1321              		.cfi_remember_state
 1322              		.cfi_def_cfa_offset 4
 1323              		@ sp needed
 1324 0018 5DF804FB 		ldr	pc, [sp], #4
 1325              	.L177:
 1326              		.cfi_restore_state
 1327 001c FFF7FEFF 		bl	__stack_chk_fail
 1328              	.LVL100:
 1329              	.L179:
 1330              		.align	2
 1331              	.L178:
 1332 0020 00000000 		.word	__stack_chk_guard
 1333 0024 00000000 		.word	.LANCHOR10
 1334              		.cfi_endproc
 1335              	.LFE267:
 1336              		.size	get_line_width, .-get_line_width
 1337              		.section	.text.set_color,"ax",%progbits
 1338              		.align	1
 1339              		.p2align 4,,15
 1340              		.global	set_color
 1341              		.syntax unified
 1342              		.thumb
 1343              		.thumb_func
 1344              		.fpu fpv4-sp-d16
 1345              		.type	set_color, %function
 1346              	set_color:
 1347              	.LFB268:
 1348              		.loc 1 284 0
 1349              		.cfi_startproc
 1350              		@ args = 0, pretend = 0, frame = 8
 1351              		@ frame_needed = 0, uses_anonymous_args = 0
 1352              	.LVL101:
 1353 0000 00B5     		push	{lr}
 1354              		.cfi_def_cfa_offset 4
 1355              		.cfi_offset 14, -4
 1356 0002 074B     		ldr	r3, .L184
 1357              		.loc 1 285 0
 1358 0004 0749     		ldr	r1, .L184+4
 1359              		.loc 1 284 0
 1360 0006 1A68     		ldr	r2, [r3]
 1361              		.loc 1 285 0
 1362 0008 0860     		str	r0, [r1]
 1363              		.loc 1 284 0
 1364 000a 83B0     		sub	sp, sp, #12
 1365              		.cfi_def_cfa_offset 16
 1366              		.loc 1 284 0
 1367 000c 0192     		str	r2, [sp, #4]
 1368              		.loc 1 286 0
ARM GAS  C:\Users\FFDD~1\AppData\Local\Temp\cczkV1vP.s 			page 25


 1369 000e 019A     		ldr	r2, [sp, #4]
 1370 0010 1B68     		ldr	r3, [r3]
 1371 0012 9A42     		cmp	r2, r3
 1372 0014 02D1     		bne	.L183
 1373 0016 03B0     		add	sp, sp, #12
 1374              		.cfi_remember_state
 1375              		.cfi_def_cfa_offset 4
 1376              		@ sp needed
 1377 0018 5DF804FB 		ldr	pc, [sp], #4
 1378              	.L183:
 1379              		.cfi_restore_state
 1380 001c FFF7FEFF 		bl	__stack_chk_fail
 1381              	.LVL102:
 1382              	.L185:
 1383              		.align	2
 1384              	.L184:
 1385 0020 00000000 		.word	__stack_chk_guard
 1386 0024 00000000 		.word	.LANCHOR9
 1387              		.cfi_endproc
 1388              	.LFE268:
 1389              		.size	set_color, .-set_color
 1390              		.section	.text.get_colour,"ax",%progbits
 1391              		.align	1
 1392              		.p2align 4,,15
 1393              		.global	get_colour
 1394              		.syntax unified
 1395              		.thumb
 1396              		.thumb_func
 1397              		.fpu fpv4-sp-d16
 1398              		.type	get_colour, %function
 1399              	get_colour:
 1400              	.LFB269:
 1401              		.loc 1 287 0
 1402              		.cfi_startproc
 1403              		@ args = 0, pretend = 0, frame = 8
 1404              		@ frame_needed = 0, uses_anonymous_args = 0
 1405 0000 00B5     		push	{lr}
 1406              		.cfi_def_cfa_offset 4
 1407              		.cfi_offset 14, -4
 1408 0002 074B     		ldr	r3, .L190
 1409              		.loc 1 288 0
 1410 0004 0749     		ldr	r1, .L190+4
 1411              		.loc 1 287 0
 1412 0006 1A68     		ldr	r2, [r3]
 1413              		.loc 1 289 0
 1414 0008 0868     		ldr	r0, [r1]
 1415              		.loc 1 287 0
 1416 000a 83B0     		sub	sp, sp, #12
 1417              		.cfi_def_cfa_offset 16
 1418              		.loc 1 287 0
 1419 000c 0192     		str	r2, [sp, #4]
 1420              		.loc 1 289 0
 1421 000e 019A     		ldr	r2, [sp, #4]
 1422 0010 1B68     		ldr	r3, [r3]
 1423 0012 9A42     		cmp	r2, r3
 1424 0014 02D1     		bne	.L189
 1425 0016 03B0     		add	sp, sp, #12
ARM GAS  C:\Users\FFDD~1\AppData\Local\Temp\cczkV1vP.s 			page 26


 1426              		.cfi_remember_state
 1427              		.cfi_def_cfa_offset 4
 1428              		@ sp needed
 1429 0018 5DF804FB 		ldr	pc, [sp], #4
 1430              	.L189:
 1431              		.cfi_restore_state
 1432 001c FFF7FEFF 		bl	__stack_chk_fail
 1433              	.LVL103:
 1434              	.L191:
 1435              		.align	2
 1436              	.L190:
 1437 0020 00000000 		.word	__stack_chk_guard
 1438 0024 00000000 		.word	.LANCHOR9
 1439              		.cfi_endproc
 1440              	.LFE269:
 1441              		.size	get_colour, .-get_colour
 1442              		.global	lineWidth
 1443              		.global	colour_found
 1444              		.global	falling_slope
 1445              		.global	rising_slope
 1446              		.global	colour_image
 1447              		.section	.bss.colour_found,"aw",%nobits
 1448              		.set	.LANCHOR3,. + 0
 1449              		.type	colour_found, %object
 1450              		.size	colour_found, 1
 1451              	colour_found:
 1452 0000 00       		.space	1
 1453              		.section	.bss.distance_cm,"aw",%nobits
 1454              		.align	2
 1455              		.set	.LANCHOR11,. + 0
 1456              		.type	distance_cm, %object
 1457              		.size	distance_cm, 4
 1458              	distance_cm:
 1459 0000 00000000 		.space	4
 1460              		.section	.bss.falling_slope,"aw",%nobits
 1461              		.set	.LANCHOR4,. + 0
 1462              		.type	falling_slope, %object
 1463              		.size	falling_slope, 1
 1464              	falling_slope:
 1465 0000 00       		.space	1
 1466              		.section	.bss.last_width.11437,"aw",%nobits
 1467              		.align	1
 1468              		.set	.LANCHOR6,. + 0
 1469              		.type	last_width.11437, %object
 1470              		.size	last_width.11437, 2
 1471              	last_width.11437:
 1472 0000 0000     		.space	2
 1473              		.section	.bss.lineWidth,"aw",%nobits
 1474              		.align	1
 1475              		.set	.LANCHOR10,. + 0
 1476              		.type	lineWidth, %object
 1477              		.size	lineWidth, 2
 1478              	lineWidth:
 1479 0000 0000     		.space	2
 1480              		.section	.bss.rising_slope,"aw",%nobits
 1481              		.set	.LANCHOR5,. + 0
 1482              		.type	rising_slope, %object
ARM GAS  C:\Users\FFDD~1\AppData\Local\Temp\cczkV1vP.s 			page 27


 1483              		.size	rising_slope, 1
 1484              	rising_slope:
 1485 0000 00       		.space	1
 1486              		.section	.bss.waCaptureImage,"aw",%nobits
 1487              		.align	3
 1488              		.set	.LANCHOR13,. + 0
 1489              		.type	waCaptureImage, %object
 1490              		.size	waCaptureImage, 632
 1491              	waCaptureImage:
 1492 0000 00000000 		.space	632
 1492      00000000 
 1492      00000000 
 1492      00000000 
 1492      00000000 
 1493              		.section	.bss.waProcessImage,"aw",%nobits
 1494              		.align	3
 1495              		.set	.LANCHOR12,. + 0
 1496              		.type	waProcessImage, %object
 1497              		.size	waProcessImage, 1400
 1498              	waProcessImage:
 1499 0000 00000000 		.space	1400
 1499      00000000 
 1499      00000000 
 1499      00000000 
 1499      00000000 
 1500              		.section	.data.colour_image,"aw",%progbits
 1501              		.align	2
 1502              		.set	.LANCHOR9,. + 0
 1503              		.type	colour_image, %object
 1504              		.size	colour_image, 4
 1505              	colour_image:
 1506 0000 01000000 		.word	1
 1507              		.section	.data.image_ready_sem,"aw",%progbits
 1508              		.align	2
 1509              		.set	.LANCHOR1,. + 0
 1510              		.type	image_ready_sem, %object
 1511              		.size	image_ready_sem, 12
 1512              	image_ready_sem:
 1513 0000 00000000 		.word	image_ready_sem
 1514 0004 00000000 		.word	image_ready_sem
 1515 0008 00000000 		.word	0
 1516              		.section	.data.line_position,"aw",%progbits
 1517              		.align	1
 1518              		.set	.LANCHOR7,. + 0
 1519              		.type	line_position, %object
 1520              		.size	line_position, 2
 1521              	line_position:
 1522 0000 4001     		.short	320
 1523              		.section	.rodata.__FUNCTION__.11455,"a",%progbits
 1524              		.align	2
 1525              		.set	.LANCHOR0,. + 0
 1526              		.type	__FUNCTION__.11455, %object
 1527              		.size	__FUNCTION__.11455, 13
 1528              	__FUNCTION__.11455:
 1529 0000 43617074 		.ascii	"CaptureImage\000"
 1529      75726549 
 1529      6D616765 
ARM GAS  C:\Users\FFDD~1\AppData\Local\Temp\cczkV1vP.s 			page 28


 1529      00
 1530              		.section	.rodata.__FUNCTION__.11461,"a",%progbits
 1531              		.align	2
 1532              		.set	.LANCHOR8,. + 0
 1533              		.type	__FUNCTION__.11461, %object
 1534              		.size	__FUNCTION__.11461, 13
 1535              	__FUNCTION__.11461:
 1536 0000 50726F63 		.ascii	"ProcessImage\000"
 1536      65737349 
 1536      6D616765 
 1536      00
 1537              		.section	.rodata.__func__.7153,"a",%progbits
 1538              		.align	2
 1539              		.set	.LANCHOR2,. + 0
 1540              		.type	__func__.7153, %object
 1541              		.size	__func__.7153, 12
 1542              	__func__.7153:
 1543 0000 63685379 		.ascii	"chSysUnlock\000"
 1543      73556E6C 
 1543      6F636B00 
 1544              		.text
 1545              	.Letext0:
 1546              		.file 6 "c:\\eclipse\\eclipse_e-puck2\\tools\\gcc-arm-none-eabi-7-2017-q4-major-win32\\lib\\gcc\\a
 1547              		.file 7 "c:\\eclipse\\eclipse_e-puck2\\tools\\gcc-arm-none-eabi-7-2017-q4-major-win32\\arm-none-ea
 1548              		.file 8 "c:\\eclipse\\eclipse_e-puck2\\tools\\gcc-arm-none-eabi-7-2017-q4-major-win32\\arm-none-ea
 1549              		.file 9 "../e-puck2_main-processor/ChibiOS//os/rt/ports/ARMCMx/compilers/GCC/chtypes.h"
 1550              		.file 10 "../e-puck2_main-processor/ChibiOS//os/rt/include/chsystypes.h"
 1551              		.file 11 "../e-puck2_main-processor/ChibiOS//os/rt/include/chschd.h"
 1552              		.file 12 "../e-puck2_main-processor/ChibiOS//os/ext/CMSIS/include/core_cm4.h"
 1553              		.file 13 "../e-puck2_main-processor/ChibiOS//os/ext/CMSIS/ST/system_stm32f4xx.h"
 1554              		.file 14 "../e-puck2_main-processor/ChibiOS//os/ext/CMSIS/ST/stm32f407xx.h"
 1555              		.file 15 "../e-puck2_main-processor/ChibiOS//os/rt/ports/ARMCMx/chcore.h"
 1556              		.file 16 "../e-puck2_main-processor/ChibiOS//os/rt/ports/ARMCMx/chcore_v7m.h"
 1557              		.file 17 "../e-puck2_main-processor/ChibiOS//os/rt/include/chdebug.h"
 1558              		.file 18 "../e-puck2_main-processor/ChibiOS//os/rt/include/chtm.h"
 1559              		.file 19 "../e-puck2_main-processor/ChibiOS//os/rt/include/chstats.h"
 1560              		.file 20 "../e-puck2_main-processor/ChibiOS//os/rt/include/chsem.h"
 1561              		.file 21 "../e-puck2_main-processor/ChibiOS//os/rt/include/chmtx.h"
 1562              		.file 22 "../e-puck2_main-processor/ChibiOS//os/rt/include/chevents.h"
 1563              		.file 23 "../e-puck2_main-processor/ChibiOS//os/rt/include/chqueues.h"
 1564              		.file 24 "../e-puck2_main-processor/ChibiOS//os/hal/ports/STM32/STM32F4xx/stm32_dma.h"
 1565              		.file 25 "../e-puck2_main-processor/ChibiOS//os/hal/include/hal_ioblock.h"
 1566              		.file 26 "../e-puck2_main-processor/ChibiOS//os/hal/ports/STM32/LLD/GPIOv2/pal_lld.h"
 1567              		.file 27 "../e-puck2_main-processor/ChibiOS//os/hal/include/adc.h"
 1568              		.file 28 "../e-puck2_main-processor/ChibiOS//os/hal/ports/STM32/STM32F4xx/adc_lld.h"
 1569              		.file 29 "../e-puck2_main-processor/ChibiOS//os/hal/include/can.h"
 1570              		.file 30 "../e-puck2_main-processor/ChibiOS//os/hal/ports/STM32/LLD/can_lld.h"
 1571              		.file 31 "../e-puck2_main-processor/ChibiOS//os/hal/include/dac.h"
 1572              		.file 32 "../e-puck2_main-processor/ChibiOS//os/hal/ports/STM32/LLD/DACv1/dac_lld.h"
 1573              		.file 33 "../e-puck2_main-processor/ChibiOS//os/hal/include/ext.h"
 1574              		.file 34 "../e-puck2_main-processor/ChibiOS//os/hal/ports/STM32/LLD/ext_lld.h"
 1575              		.file 35 "../e-puck2_main-processor/ChibiOS//os/hal/include/gpt.h"
 1576              		.file 36 "../e-puck2_main-processor/ChibiOS//os/hal/ports/STM32/LLD/TIMv1/gpt_lld.h"
 1577              		.file 37 "../e-puck2_main-processor/ChibiOS//os/hal/ports/STM32/LLD/TIMv1/stm32_tim.h"
 1578              		.file 38 "../e-puck2_main-processor/ChibiOS//os/hal/include/i2c.h"
 1579              		.file 39 "../e-puck2_main-processor/ChibiOS//os/hal/ports/STM32/LLD/I2Cv1/i2c_lld.h"
 1580              		.file 40 "../e-puck2_main-processor/ChibiOS//os/hal/include/i2s.h"
ARM GAS  C:\Users\FFDD~1\AppData\Local\Temp\cczkV1vP.s 			page 29


 1581              		.file 41 "../e-puck2_main-processor/ChibiOS//os/hal/ports/STM32/LLD/SPIv1/i2s_lld.h"
 1582              		.file 42 "../e-puck2_main-processor/ChibiOS//os/hal/include/pwm.h"
 1583              		.file 43 "../e-puck2_main-processor/ChibiOS//os/hal/ports/STM32/LLD/TIMv1/pwm_lld.h"
 1584              		.file 44 "../e-puck2_main-processor/ChibiOS//os/hal/include/serial.h"
 1585              		.file 45 "../e-puck2_main-processor/ChibiOS//os/hal/ports/STM32/LLD/USARTv1/serial_lld.h"
 1586              		.file 46 "../e-puck2_main-processor/ChibiOS//os/hal/include/sdc.h"
 1587              		.file 47 "../e-puck2_main-processor/ChibiOS//os/hal/ports/STM32/LLD/sdc_lld.h"
 1588              		.file 48 "../e-puck2_main-processor/ChibiOS//os/hal/include/spi.h"
 1589              		.file 49 "../e-puck2_main-processor/ChibiOS//os/hal/ports/STM32/LLD/SPIv1/spi_lld.h"
 1590              		.file 50 "../e-puck2_main-processor/ChibiOS//os/hal/include/usb.h"
 1591              		.file 51 "../e-puck2_main-processor/ChibiOS//os/hal/ports/STM32/LLD/OTGv1/usb_lld.h"
 1592              		.file 52 "../e-puck2_main-processor/ChibiOS//os/hal/ports/STM32/LLD/OTGv1/stm32_otg.h"
 1593              		.file 53 "../e-puck2_main-processor/ChibiOS//os/hal/include/serial_usb.h"
 1594              		.file 54 "../e-puck2_main-processor/src/usbcfg.h"
 1595              		.file 55 "../e-puck2_main-processor/ChibiOS_ext/os/hal/include/../ports/STM32/STM32F4xx/dcmi_lld.h
 1596              		.file 56 "../e-puck2_main-processor/src/camera/po8030.h"
 1597              		.file 57 "../e-puck2_main-processor/src/camera/dcmi_camera.h"
 1598              		.file 58 "c:\\eclipse\\eclipse_e-puck2\\tools\\gcc-arm-none-eabi-7-2017-q4-major-win32\\arm-none-e
 1599              		.file 59 "c:\\eclipse\\eclipse_e-puck2\\tools\\gcc-arm-none-eabi-7-2017-q4-major-win32\\arm-none-e
 1600              		.file 60 "c:\\eclipse\\eclipse_e-puck2\\tools\\gcc-arm-none-eabi-7-2017-q4-major-win32\\arm-none-e
 1601              		.file 61 "../e-puck2_main-processor/src/msgbus/messagebus.h"
 1602              		.file 62 "c:\\eclipse\\eclipse_e-puck2\\tools\\gcc-arm-none-eabi-7-2017-q4-major-win32\\arm-none-e
 1603              		.file 63 "c:\\eclipse\\eclipse_e-puck2\\tools\\gcc-arm-none-eabi-7-2017-q4-major-win32\\arm-none-e
 1604              		.file 64 "../e-puck2_main-processor/src/parameter/parameter.h"
 1605              		.file 65 "./main.h"
 1606              		.file 66 "./audio_processing.h"
 1607              		.file 67 "../e-puck2_main-processor/ChibiOS//os/rt/include/chthreads.h"
 1608              		.file 68 "../e-puck2_main-processor/src/leds.h"
 1609              		.file 69 "<built-in>"